(dp0
I0
(icore.engine
StatCollection
p1
(dp2
S'status'
p3
I200
sS'latency'
p4
F14.73580002784729
sS'avg_connect_latency'
p5
F13.54438841342926
sS'count'
p6
I2
sS'total_connect_latency'
p7
F27.08877682685852
sS'avg_latency'
p8
F13.544516444206238
sS'reason'
p9
S'OK'
p10
sS'agent_start_time'
p11
S'16:43:22'
p12
sS'error_count'
p13
I0
sS'total_latency'
p14
F27.089032888412476
sS'total_bytes'
p15
I814
sbsI1
(icore.engine
StatCollection
p16
(dp17
g3
I200
sg4
F12.574690103530884
sg5
F14.087570548057556
sg6
I2
sg7
F28.175141096115112
sg8
F14.087686538696289
sg9
S'OK'
p18
sg11
S'16:43:22'
p19
sg13
I0
sg14
F28.175373077392578
sg15
I814
sbsI2
(icore.engine
StatCollection
p20
(dp21
g3
I200
sg4
F11.448206901550293
sg5
F11.449105858802795
sg6
I2
sg7
F22.89821171760559
sg8
F11.449186444282532
sg9
S'OK'
p22
sg11
S'16:43:22'
p23
sg13
I0
sg14
F22.898372888565063
sg15
I814
sbsI3
(icore.engine
StatCollection
p24
(dp25
g3
I200
sg4
F12.401067972183228
sg5
F12.5076185464859
sg6
I2
sg7
F25.0152370929718
sg8
F12.507710456848145
sg9
S'OK'
p26
sg11
S'16:43:22'
p27
sg13
I0
sg14
F25.01542091369629
sg15
I814
sbsI4
(icore.engine
StatCollection
p28
(dp29
g3
I200
sg4
F12.914099931716919
sg5
F12.541732549667358
sg6
I2
sg7
F25.083465099334717
sg8
F12.541849970817566
sg9
S'OK'
p30
sg11
S'16:43:22'
p31
sg13
I0
sg14
F25.083699941635132
sg15
I814
sbsI5
(icore.engine
StatCollection
p32
(dp33
g3
I200
sg4
F13.861110925674438
sg5
F13.251582503318787
sg6
I2
sg7
F26.503165006637573
sg8
F13.25165045261383
sg9
S'OK'
p34
sg11
S'16:43:22'
p35
sg13
I0
sg14
F26.50330090522766
sg15
I814
sbsI6
(icore.engine
StatCollection
p36
(dp37
g3
I200
sg4
F13.546552181243896
sg5
F12.170824527740479
sg6
I2
sg7
F24.341649055480957
sg8
F12.17090356349945
sg9
S'OK'
p38
sg11
S'16:43:22'
p39
sg13
I0
sg14
F24.3418071269989
sg15
I814
sbsI7
(icore.engine
StatCollection
p40
(dp41
g3
I200
sg4
F11.730129957199097
sg5
F14.64226245880127
sg6
I2
sg7
F29.28452491760254
sg8
F14.642351984977722
sg9
S'OK'
p42
sg11
S'16:43:22'
p43
sg13
I0
sg14
F29.284703969955444
sg15
I814
sbsI8
(icore.engine
StatCollection
p44
(dp45
g3
I200
sg4
F12.71946096420288
sg5
F14.048041462898254
sg6
I2
sg7
F28.09608292579651
sg8
F14.048115491867065
sg9
S'OK'
p46
sg11
S'16:43:22'
p47
sg13
I0
sg14
F28.09623098373413
sg15
I814
sbsI9
(icore.engine
StatCollection
p48
(dp49
g3
I200
sg4
F12.85755205154419
sg5
F14.256749510765076
sg6
I2
sg7
F28.51349902153015
sg8
F14.256833553314209
sg9
S'OK'
p50
sg11
S'16:43:22'
p51
sg13
I0
sg14
F28.513667106628418
sg15
I814
sbsI10
(icore.engine
StatCollection
p52
(dp53
g3
I200
sg4
F12.47901701927185
sg5
F12.787328958511353
sg6
I2
sg7
F25.574657917022705
sg8
F12.78746497631073
sg9
S'OK'
p54
sg11
S'16:43:22'
p55
sg13
I0
sg14
F25.57492995262146
sg15
I814
sbsI11
(icore.engine
StatCollection
p56
(dp57
g3
I200
sg4
F9.844835996627808
sg5
F13.69920003414154
sg6
I2
sg7
F27.39840006828308
sg8
F13.699303030967712
sg9
S'OK'
p58
sg11
S'16:43:22'
p59
sg13
I0
sg14
F27.398606061935425
sg15
I814
sbsI12
(icore.engine
StatCollection
p60
(dp61
g3
I200
sg4
F11.444272994995117
sg5
F12.025137543678284
sg6
I2
sg7
F24.050275087356567
sg8
F12.025243520736694
sg9
S'OK'
p62
sg11
S'16:43:22'
p63
sg13
I0
sg14
F24.05048704147339
sg15
I814
sbsI13
(icore.engine
StatCollection
p64
(dp65
g3
I200
sg4
F12.81265115737915
sg5
F13.385239124298096
sg6
I2
sg7
F26.77047824859619
sg8
F13.385311126708984
sg9
S'OK'
p66
sg11
S'16:43:22'
p67
sg13
I0
sg14
F26.77062225341797
sg15
I814
sbsI14
(icore.engine
StatCollection
p68
(dp69
g3
I200
sg4
F9.668673038482666
sg5
F14.492038607597351
sg6
I2
sg7
F28.984077215194702
sg8
F14.492140531539917
sg9
S'OK'
p70
sg11
S'16:43:22'
p71
sg13
I0
sg14
F28.984281063079834
sg15
I814
sbsI15
(icore.engine
StatCollection
p72
(dp73
g3
I200
sg4
F12.296154022216797
sg5
F13.48871898651123
sg6
I2
sg7
F26.97743797302246
sg8
F13.488797545433044
sg9
S'OK'
p74
sg11
S'16:43:22'
p75
sg13
I0
sg14
F26.97759509086609
sg15
I814
sbsI16
(icore.engine
StatCollection
p76
(dp77
g3
I200
sg4
F11.956399917602539
sg5
F12.751376509666443
sg6
I2
sg7
F25.502753019332886
sg8
F12.751473903656006
sg9
S'OK'
p78
sg11
S'16:43:22'
p79
sg13
I0
sg14
F25.50294780731201
sg15
I814
sbsI17
(icore.engine
StatCollection
p80
(dp81
g3
I200
sg4
F11.968661785125732
sg5
F13.040907979011536
sg6
I2
sg7
F26.08181595802307
sg8
F13.04099690914154
sg9
S'OK'
p82
sg11
S'16:43:22'
p83
sg13
I0
sg14
F26.08199381828308
sg15
I814
sbsI18
(icore.engine
StatCollection
p84
(dp85
g3
I200
sg4
F13.148892879486084
sg5
F12.910785436630249
sg6
I2
sg7
F25.821570873260498
sg8
F12.910887360572815
sg9
S'OK'
p86
sg11
S'16:43:22'
p87
sg13
I0
sg14
F25.82177472114563
sg15
I814
sbsI19
(icore.engine
StatCollection
p88
(dp89
g3
I200
sg4
F12.235132932662964
sg5
F13.598742961883545
sg6
I2
sg7
F27.19748592376709
sg8
F13.598848462104797
sg9
S'OK'
p90
sg11
S'16:43:22'
p91
sg13
I0
sg14
F27.197696924209595
sg15
I814
sbsI20
(icore.engine
StatCollection
p92
(dp93
g3
I200
sg4
F13.082679986953735
sg5
F13.319772005081177
sg6
I2
sg7
F26.639544010162354
sg8
F13.319833993911743
sg9
S'OK'
p94
sg11
S'16:43:22'
p95
sg13
I0
sg14
F26.639667987823486
sg15
I814
sbsI21
(icore.engine
StatCollection
p96
(dp97
g3
I200
sg4
F13.064524173736572
sg5
F13.306883931159973
sg6
I2
sg7
F26.613767862319946
sg8
F13.306979537010193
sg9
S'OK'
p98
sg11
S'16:43:22'
p99
sg13
I0
sg14
F26.613959074020386
sg15
I814
sbsI22
(icore.engine
StatCollection
p100
(dp101
g3
I200
sg4
F11.529140949249268
sg5
F11.606513023376465
sg6
I2
sg7
F23.21302604675293
sg8
F11.606617450714111
sg9
S'OK'
p102
sg11
S'16:43:22'
p103
sg13
I0
sg14
F23.213234901428223
sg15
I814
sbsI23
(icore.engine
StatCollection
p104
(dp105
g3
I200
sg4
F9.884047031402588
sg5
F14.486153364181519
sg6
I2
sg7
F28.972306728363037
sg8
F14.486230969429016
sg9
S'OK'
p106
sg11
S'16:43:22'
p107
sg13
I0
sg14
F28.972461938858032
sg15
I814
sbsI24
(icore.engine
StatCollection
p108
(dp109
g3
I200
sg4
F9.295751094818115
sg5
F14.664608120918274
sg6
I2
sg7
F29.329216241836548
sg8
F14.664657592773438
sg9
S'OK'
p110
sg11
S'16:43:22'
p111
sg13
I0
sg14
F29.329315185546875
sg15
I814
sbsI25
(icore.engine
StatCollection
p112
(dp113
g3
I200
sg4
F10.322073936462402
sg5
F13.928349018096924
sg6
I2
sg7
F27.856698036193848
sg8
F13.928413987159729
sg9
S'OK'
p114
sg11
S'16:43:22'
p115
sg13
I0
sg14
F27.856827974319458
sg15
I814
sbsI26
(icore.engine
StatCollection
p116
(dp117
g3
I200
sg4
F13.48075008392334
sg5
F13.646328091621399
sg6
I2
sg7
F27.292656183242798
sg8
F13.646431565284729
sg9
S'OK'
p118
sg11
S'16:43:22'
p119
sg13
I0
sg14
F27.292863130569458
sg15
I814
sbsI27
(icore.engine
StatCollection
p120
(dp121
g3
I200
sg4
F12.015146970748901
sg5
F12.314767479896545
sg6
I2
sg7
F24.62953495979309
sg8
F12.314866065979004
sg9
S'OK'
p122
sg11
S'16:43:22'
p123
sg13
I0
sg14
F24.629732131958008
sg15
I814
sbsI28
(icore.engine
StatCollection
p124
(dp125
g3
I200
sg4
F9.837836980819702
sg5
F14.568520188331604
sg6
I2
sg7
F29.137040376663208
sg8
F14.568578004837036
sg9
S'OK'
p126
sg11
S'16:43:22'
p127
sg13
I0
sg14
F29.137156009674072
sg15
I814
sbsI29
(icore.engine
StatCollection
p128
(dp129
g3
I200
sg4
F9.9291410446167
sg5
F14.614121556282043
sg6
I2
sg7
F29.228243112564087
sg8
F14.61419153213501
sg9
S'OK'
p130
sg11
S'16:43:22'
p131
sg13
I0
sg14
F29.22838306427002
sg15
I814
sbsI30
(icore.engine
StatCollection
p132
(dp133
g3
I200
sg4
F11.812525987625122
sg5
F13.640092611312866
sg6
I2
sg7
F27.280185222625732
sg8
F13.64018201828003
sg9
S'OK'
p134
sg11
S'16:43:22'
p135
sg13
I0
sg14
F27.28036403656006
sg15
I814
sbsI31
(icore.engine
StatCollection
p136
(dp137
g3
I200
sg4
F11.09979510307312
sg5
F14.317201018333435
sg6
I2
sg7
F28.63440203666687
sg8
F14.317293167114258
sg9
S'OK'
p138
sg11
S'16:43:22'
p139
sg13
I0
sg14
F28.634586334228516
sg15
I814
sbsI32
(icore.engine
StatCollection
p140
(dp141
g3
I200
sg4
F14.893311023712158
sg5
F13.725537538528442
sg6
I2
sg7
F27.451075077056885
sg8
F13.72563099861145
sg9
S'OK'
p142
sg11
S'16:43:22'
p143
sg13
I0
sg14
F27.4512619972229
sg15
I814
sbsI33
(icore.engine
StatCollection
p144
(dp145
g3
I200
sg4
F14.166363000869751
sg5
F14.082915902137756
sg6
I2
sg7
F28.165831804275513
sg8
F14.083003997802734
sg9
S'OK'
p146
sg11
S'16:43:22'
p147
sg13
I0
sg14
F28.16600799560547
sg15
I814
sbsI34
(icore.engine
StatCollection
p148
(dp149
g3
I200
sg4
F10.996930122375488
sg5
F14.265723466873169
sg6
I2
sg7
F28.531446933746338
sg8
F14.265796542167664
sg9
S'OK'
p150
sg11
S'16:43:22'
p151
sg13
I0
sg14
F28.531593084335327
sg15
I814
sbsI35
(icore.engine
StatCollection
p152
(dp153
g3
I200
sg4
F12.450627088546753
sg5
F14.137775421142578
sg6
I2
sg7
F28.275550842285156
sg8
F14.137874007225037
sg9
S'OK'
p154
sg11
S'16:43:22'
p155
sg13
I0
sg14
F28.275748014450073
sg15
I814
sbsI36
(icore.engine
StatCollection
p156
(dp157
g3
I200
sg4
F12.16419005393982
sg5
F13.89409589767456
sg6
I2
sg7
F27.78819179534912
sg8
F13.894188523292542
sg9
S'OK'
p158
sg11
S'16:43:22'
p159
sg13
I0
sg14
F27.788377046585083
sg15
I814
sbsI37
(icore.engine
StatCollection
p160
(dp161
g3
I200
sg4
F10.556963920593262
sg5
F14.6467205286026
sg6
I2
sg7
F29.2934410572052
sg8
F14.64681100845337
sg9
S'OK'
p162
sg11
S'16:43:22'
p163
sg13
I0
sg14
F29.29362201690674
sg15
I814
sbsI38
(icore.engine
StatCollection
p164
(dp165
g3
I200
sg4
F13.674034833908081
sg5
F14.30327296257019
sg6
I2
sg7
F28.60654592514038
sg8
F14.303354978561401
sg9
S'OK'
p166
sg11
S'16:43:22'
p167
sg13
I0
sg14
F28.606709957122803
sg15
I814
sbsI39
(icore.engine
StatCollection
p168
(dp169
g3
I200
sg4
F11.422308921813965
sg5
F13.52145791053772
sg6
I2
sg7
F27.04291582107544
sg8
F13.521536469459534
sg9
S'OK'
p170
sg11
S'16:43:22'
p171
sg13
I0
sg14
F27.043072938919067
sg15
I814
sbsI40
(icore.engine
StatCollection
p172
(dp173
g3
I200
sg4
F11.852055072784424
sg5
F13.34196138381958
sg6
I2
sg7
F26.68392276763916
sg8
F13.342055439949036
sg9
S'OK'
p174
sg11
S'16:43:22'
p175
sg13
I0
sg14
F26.68411087989807
sg15
I814
sbsI41
(icore.engine
StatCollection
p176
(dp177
g3
I200
sg4
F21.059736013412476
sg5
F21.059656143188477
sg6
I1
sg7
F21.059656143188477
sg8
F21.059736013412476
sg9
S'OK'
p178
sg11
S'16:43:22'
p179
sg13
I0
sg14
F21.059736013412476
sg15
I407
sbsI42
(icore.engine
StatCollection
p180
(dp181
g3
I200
sg4
F20.405340909957886
sg5
F20.40527892112732
sg6
I1
sg7
F20.40527892112732
sg8
F20.405340909957886
sg9
S'OK'
p182
sg11
S'16:43:22'
p183
sg13
I0
sg14
F20.405340909957886
sg15
I407
sbsI43
(icore.engine
StatCollection
p184
(dp185
g3
I200
sg4
F10.757765054702759
sg5
F13.043506979942322
sg6
I2
sg7
F26.087013959884644
sg8
F13.04367196559906
sg9
S'OK'
p186
sg11
S'16:43:22'
p187
sg13
I0
sg14
F26.08734393119812
sg15
I814
sbsI44
(icore.engine
StatCollection
p188
(dp189
g3
I200
sg4
F12.390200853347778
sg5
F13.909156918525696
sg6
I2
sg7
F27.81831383705139
sg8
F13.90924596786499
sg9
S'OK'
p190
sg11
S'16:43:22'
p191
sg13
I0
sg14
F27.81849193572998
sg15
I814
sbsI45
(icore.engine
StatCollection
p192
(dp193
g3
I200
sg4
F9.904256105422974
sg5
F14.450338006019592
sg6
I2
sg7
F28.900676012039185
sg8
F14.450393557548523
sg9
S'OK'
p194
sg11
S'16:43:22'
p195
sg13
I0
sg14
F28.900787115097046
sg15
I814
sbsI46
(icore.engine
StatCollection
p196
(dp197
g3
I200
sg4
F10.702404975891113
sg5
F11.84620988368988
sg6
I2
sg7
F23.69241976737976
sg8
F11.846291899681091
sg9
S'OK'
p198
sg11
S'16:43:22'
p199
sg13
I0
sg14
F23.692583799362183
sg15
I814
sbsI47
(icore.engine
StatCollection
p200
(dp201
g3
I200
sg4
F12.622344970703125
sg5
F13.977707505226135
sg6
I2
sg7
F27.95541501045227
sg8
F13.977786421775818
sg9
S'OK'
p202
sg11
S'16:43:22'
p203
sg13
I0
sg14
F27.955572843551636
sg15
I814
sbsI48
(icore.engine
StatCollection
p204
(dp205
g3
I200
sg4
F20.395312786102295
sg5
F20.39525079727173
sg6
I1
sg7
F20.39525079727173
sg8
F20.395312786102295
sg9
S'OK'
p206
sg11
S'16:43:22'
p207
sg13
I0
sg14
F20.395312786102295
sg15
I407
sbsI49
(icore.engine
StatCollection
p208
(dp209
g3
I200
sg4
F13.09809398651123
sg5
F14.408622026443481
sg6
I2
sg7
F28.817244052886963
sg8
F14.408745527267456
sg9
S'OK'
p210
sg11
S'16:43:22'
p211
sg13
I0
sg14
F28.817491054534912
sg15
I814
sbsI50
(icore.engine
StatCollection
p212
(dp213
g3
I200
sg4
F10.423193216323853
sg5
F11.36768352985382
sg6
I2
sg7
F22.73536705970764
sg8
F11.367778539657593
sg9
S'OK'
p214
sg11
S'16:43:22'
p215
sg13
I0
sg14
F22.735557079315186
sg15
I814
sbsI51
(icore.engine
StatCollection
p216
(dp217
g3
I200
sg4
F13.673257112503052
sg5
F14.147637009620667
sg6
I2
sg7
F28.295274019241333
sg8
F14.147736549377441
sg9
S'OK'
p218
sg11
S'16:43:22'
p219
sg13
I0
sg14
F28.295473098754883
sg15
I814
sbsI52
(icore.engine
StatCollection
p220
(dp221
g3
I200
sg4
F11.301229000091553
sg5
F13.474553942680359
sg6
I2
sg7
F26.949107885360718
sg8
F13.474636554718018
sg9
S'OK'
p222
sg11
S'16:43:22'
p223
sg13
I0
sg14
F26.949273109436035
sg15
I814
sbsI53
(icore.engine
StatCollection
p224
(dp225
g3
I200
sg4
F10.208367824554443
sg5
F14.608608841896057
sg6
I2
sg7
F29.217217683792114
sg8
F14.608694434165955
sg9
S'OK'
p226
sg11
S'16:43:22'
p227
sg13
I0
sg14
F29.21738886833191
sg15
I814
sbsI54
(icore.engine
StatCollection
p228
(dp229
g3
I200
sg4
F11.488345861434937
sg5
F13.19935941696167
sg6
I2
sg7
F26.39871883392334
sg8
F13.199445962905884
sg9
S'OK'
p230
sg11
S'16:43:22'
p231
sg13
I0
sg14
F26.398891925811768
sg15
I814
sbsI55
(icore.engine
StatCollection
p232
(dp233
g3
I200
sg4
F11.527785778045654
sg5
F14.514566898345947
sg6
I2
sg7
F29.029133796691895
sg8
F14.514631390571594
sg9
S'OK'
p234
sg11
S'16:43:22'
p235
sg13
I0
sg14
F29.02926278114319
sg15
I814
sbsI56
(icore.engine
StatCollection
p236
(dp237
g3
I200
sg4
F11.520563125610352
sg5
F11.907337069511414
sg6
I2
sg7
F23.814674139022827
sg8
F11.907435059547424
sg9
S'OK'
p238
sg11
S'16:43:22'
p239
sg13
I0
sg14
F23.81487011909485
sg15
I814
sbsI57
(icore.engine
StatCollection
p240
(dp241
g3
I200
sg4
F12.900096893310547
sg5
F13.627023100852966
sg6
I2
sg7
F27.254046201705933
sg8
F13.627141952514648
sg9
S'OK'
p242
sg11
S'16:43:22'
p243
sg13
I0
sg14
F27.254283905029297
sg15
I814
sbsI58
(icore.engine
StatCollection
p244
(dp245
g3
I200
sg4
F12.288354873657227
sg5
F13.334594011306763
sg6
I2
sg7
F26.669188022613525
sg8
F13.334677457809448
sg9
S'OK'
p246
sg11
S'16:43:22'
p247
sg13
I0
sg14
F26.669354915618896
sg15
I814
sbsI59
(icore.engine
StatCollection
p248
(dp249
g3
I200
sg4
F12.265313863754272
sg5
F12.4193674325943
sg6
I2
sg7
F24.8387348651886
sg8
F12.419428944587708
sg9
S'OK'
p250
sg11
S'16:43:22'
p251
sg13
I0
sg14
F24.838857889175415
sg15
I814
sbsI60
(icore.engine
StatCollection
p252
(dp253
g3
I200
sg4
F12.995053768157959
sg5
F14.183522939682007
sg6
I2
sg7
F28.367045879364014
sg8
F14.183618426322937
sg9
S'OK'
p254
sg11
S'16:43:22'
p255
sg13
I0
sg14
F28.367236852645874
sg15
I814
sbsI61
(icore.engine
StatCollection
p256
(dp257
g3
I200
sg4
F12.382716178894043
sg5
F13.315922021865845
sg6
I2
sg7
F26.63184404373169
sg8
F13.316015124320984
sg9
S'OK'
p258
sg11
S'16:43:22'
p259
sg13
I0
sg14
F26.632030248641968
sg15
I814
sbsI62
(icore.engine
StatCollection
p260
(dp261
g3
I200
sg4
F12.468492984771729
sg5
F12.815165042877197
sg6
I2
sg7
F25.630330085754395
sg8
F12.815245509147644
sg9
S'OK'
p262
sg11
S'16:43:22'
p263
sg13
I0
sg14
F25.630491018295288
sg15
I814
sbsI63
(icore.engine
StatCollection
p264
(dp265
g3
I200
sg4
F12.03567385673523
sg5
F13.704963445663452
sg6
I2
sg7
F27.409926891326904
sg8
F13.705044388771057
sg9
S'OK'
p266
sg11
S'16:43:22'
p267
sg13
I0
sg14
F27.410088777542114
sg15
I814
sbsI64
(icore.engine
StatCollection
p268
(dp269
g3
I200
sg4
F11.187993049621582
sg5
F12.32116150856018
sg6
I2
sg7
F24.64232301712036
sg8
F12.321274518966675
sg9
S'OK'
p270
sg11
S'16:43:22'
p271
sg13
I0
sg14
F24.64254903793335
sg15
I814
sbsI65
(icore.engine
StatCollection
p272
(dp273
g3
I200
sg4
F20.07623600959778
sg5
F20.076161861419678
sg6
I1
sg7
F20.076161861419678
sg8
F20.07623600959778
sg9
S'OK'
p274
sg11
S'16:43:22'
p275
sg13
I0
sg14
F20.07623600959778
sg15
I407
sbsI66
(icore.engine
StatCollection
p276
(dp277
g3
I200
sg4
F10.857810020446777
sg5
F14.542518973350525
sg6
I2
sg7
F29.08503794670105
sg8
F14.542598485946655
sg9
S'OK'
p278
sg11
S'16:43:22'
p279
sg13
I0
sg14
F29.08519697189331
sg15
I814
sbsI67
(icore.engine
StatCollection
p280
(dp281
g3
I200
sg4
F11.636243104934692
sg5
F13.678697109222412
sg6
I2
sg7
F27.357394218444824
sg8
F13.678796648979187
sg9
S'OK'
p282
sg11
S'16:43:22'
p283
sg13
I0
sg14
F27.357593297958374
sg15
I814
sbsI68
(icore.engine
StatCollection
p284
(dp285
g3
I200
sg4
F9.980571985244751
sg5
F14.491386651992798
sg6
I2
sg7
F28.982773303985596
sg8
F14.4914710521698
sg9
S'OK'
p286
sg11
S'16:43:22'
p287
sg13
I0
sg14
F28.9829421043396
sg15
I814
sbsI69
(icore.engine
StatCollection
p288
(dp289
g3
I200
sg4
F10.144216060638428
sg5
F14.57373559474945
sg6
I2
sg7
F29.1474711894989
sg8
F14.573806047439575
sg9
S'OK'
p290
sg11
S'16:43:22'
p291
sg13
I0
sg14
F29.14761209487915
sg15
I814
sbsI70
(icore.engine
StatCollection
p292
(dp293
g3
I200
sg4
F12.754477977752686
sg5
F14.204376935958862
sg6
I2
sg7
F28.408753871917725
sg8
F14.204497575759888
sg9
S'OK'
p294
sg11
S'16:43:22'
p295
sg13
I0
sg14
F28.408995151519775
sg15
I814
sbsI71
(icore.engine
StatCollection
p296
(dp297
g3
I200
sg4
F10.560518026351929
sg5
F12.396305441856384
sg6
I2
sg7
F24.79261088371277
sg8
F12.396427512168884
sg9
S'OK'
p298
sg11
S'16:43:22'
p299
sg13
I0
sg14
F24.79285502433777
sg15
I814
sbsI72
(icore.engine
StatCollection
p300
(dp301
g3
I200
sg4
F10.35728907585144
sg5
F13.914437174797058
sg6
I2
sg7
F27.828874349594116
sg8
F13.914520621299744
sg9
S'OK'
p302
sg11
S'16:43:22'
p303
sg13
I0
sg14
F27.829041242599487
sg15
I814
sbsI73
(icore.engine
StatCollection
p304
(dp305
g3
I200
sg4
F11.580797910690308
sg5
F13.601969003677368
sg6
I2
sg7
F27.203938007354736
sg8
F13.602065443992615
sg9
S'OK'
p306
sg11
S'16:43:22'
p307
sg13
I0
sg14
F27.20413088798523
sg15
I814
sbsI74
(icore.engine
StatCollection
p308
(dp309
g3
I200
sg4
F11.32768201828003
sg5
F13.307531476020813
sg6
I2
sg7
F26.615062952041626
sg8
F13.307604432106018
sg9
S'OK'
p310
sg11
S'16:43:22'
p311
sg13
I0
sg14
F26.615208864212036
sg15
I814
sbsI75
(icore.engine
StatCollection
p312
(dp313
g3
I200
sg4
F11.473659992218018
sg5
F13.520028471946716
sg6
I2
sg7
F27.040056943893433
sg8
F13.520158052444458
sg9
S'OK'
p314
sg11
S'16:43:22'
p315
sg13
I0
sg14
F27.040316104888916
sg15
I814
sbsI76
(icore.engine
StatCollection
p316
(dp317
g3
I200
sg4
F12.968463897705078
sg5
F11.458861470222473
sg6
I2
sg7
F22.917722940444946
sg8
F11.458942413330078
sg9
S'OK'
p318
sg11
S'16:43:22'
p319
sg13
I0
sg14
F22.917884826660156
sg15
I814
sbsI77
(icore.engine
StatCollection
p320
(dp321
g3
I200
sg4
F9.256773948669434
sg5
F14.59985899925232
sg6
I2
sg7
F29.19971799850464
sg8
F14.599928498268127
sg9
S'OK'
p322
sg11
S'16:43:22'
p323
sg13
I0
sg14
F29.199856996536255
sg15
I814
sbsI78
(icore.engine
StatCollection
p324
(dp325
g3
I200
sg4
F10.109483003616333
sg5
F14.559464931488037
sg6
I2
sg7
F29.118929862976074
sg8
F14.559545993804932
sg9
S'OK'
p326
sg11
S'16:43:22'
p327
sg13
I0
sg14
F29.119091987609863
sg15
I814
sbsI79
(icore.engine
StatCollection
p328
(dp329
g3
I200
sg4
F9.891473054885864
sg5
F14.55925703048706
sg6
I2
sg7
F29.11851406097412
sg8
F14.559330582618713
sg9
S'OK'
p330
sg11
S'16:43:22'
p331
sg13
I0
sg14
F29.118661165237427
sg15
I814
sbsI80
(icore.engine
StatCollection
p332
(dp333
g3
I200
sg4
F20.374780893325806
sg5
F20.37470006942749
sg6
I1
sg7
F20.37470006942749
sg8
F20.374780893325806
sg9
S'OK'
p334
sg11
S'16:43:22'
p335
sg13
I0
sg14
F20.374780893325806
sg15
I407
sbsI81
(icore.engine
StatCollection
p336
(dp337
g3
I200
sg4
F12.132084846496582
sg5
F12.174209952354431
sg6
I2
sg7
F24.348419904708862
sg8
F12.174304366111755
sg9
S'OK'
p338
sg11
S'16:43:22'
p339
sg13
I0
sg14
F24.34860873222351
sg15
I814
sbsI82
(icore.engine
StatCollection
p340
(dp341
g3
I200
sg4
F11.354650974273682
sg5
F13.979135870933533
sg6
I2
sg7
F27.958271741867065
sg8
F13.979238986968994
sg9
S'OK'
p342
sg11
S'16:43:22'
p343
sg13
I0
sg14
F27.95847797393799
sg15
I814
sbsI83
(icore.engine
StatCollection
p344
(dp345
g3
I200
sg4
F11.471359014511108
sg5
F12.780377507209778
sg6
I2
sg7
F25.560755014419556
sg8
F12.780490517616272
sg9
S'OK'
p346
sg11
S'16:43:22'
p347
sg13
I0
sg14
F25.560981035232544
sg15
I814
sbsI84
(icore.engine
StatCollection
p348
(dp349
g3
I200
sg4
F11.650649070739746
sg5
F13.6501544713974
sg6
I2
sg7
F27.3003089427948
sg8
F13.650279998779297
sg9
S'OK'
p350
sg11
S'16:43:22'
p351
sg13
I0
sg14
F27.300559997558594
sg15
I814
sbsI85
(icore.engine
StatCollection
p352
(dp353
g3
I200
sg4
F20.11084818840027
sg5
F20.11079716682434
sg6
I1
sg7
F20.11079716682434
sg8
F20.11084818840027
sg9
S'OK'
p354
sg11
S'16:43:22'
p355
sg13
I0
sg14
F20.11084818840027
sg15
I407
sbsI86
(icore.engine
StatCollection
p356
(dp357
g3
I200
sg4
F9.356082916259766
sg5
F14.577317476272583
sg6
I2
sg7
F29.154634952545166
sg8
F14.577435970306396
sg9
S'OK'
p358
sg11
S'16:43:22'
p359
sg13
I0
sg14
F29.154871940612793
sg15
I814
sbsI87
(icore.engine
StatCollection
p360
(dp361
g3
I200
sg4
F10.144209146499634
sg5
F14.241078972816467
sg6
I2
sg7
F28.482157945632935
sg8
F14.241198539733887
sg9
S'OK'
p362
sg11
S'16:43:22'
p363
sg13
I0
sg14
F28.482397079467773
sg15
I814
sbsI88
(icore.engine
StatCollection
p364
(dp365
g3
I200
sg4
F10.252893924713135
sg5
F13.85305941104889
sg6
I2
sg7
F27.70611882209778
sg8
F13.853157997131348
sg9
S'OK'
p366
sg11
S'16:43:22'
p367
sg13
I0
sg14
F27.706315994262695
sg15
I814
sbsI89
(icore.engine
StatCollection
p368
(dp369
g3
I200
sg4
F12.265957117080688
sg5
F11.82918655872345
sg6
I2
sg7
F23.6583731174469
sg8
F11.829287052154541
sg9
S'OK'
p370
sg11
S'16:43:22'
p371
sg13
I0
sg14
F23.658574104309082
sg15
I814
sbsI90
(icore.engine
StatCollection
p372
(dp373
g3
I200
sg4
F10.811990022659302
sg5
F14.081725597381592
sg6
I2
sg7
F28.163451194763184
sg8
F14.081789493560791
sg9
S'OK'
p374
sg11
S'16:43:22'
p375
sg13
I0
sg14
F28.163578987121582
sg15
I814
sbsI91
(icore.engine
StatCollection
p376
(dp377
g3
I200
sg4
F12.560555934906006
sg5
F12.965322971343994
sg6
I2
sg7
F25.93064594268799
sg8
F12.965428471565247
sg9
S'OK'
p378
sg11
S'16:43:22'
p379
sg13
I0
sg14
F25.930856943130493
sg15
I814
sbsI92
(icore.engine
StatCollection
p380
(dp381
g3
I200
sg4
F9.94754695892334
sg5
F13.699955463409424
sg6
I2
sg7
F27.399910926818848
sg8
F13.700025916099548
sg9
S'OK'
p382
sg11
S'16:43:22'
p383
sg13
I0
sg14
F27.400051832199097
sg15
I814
sbsI93
(icore.engine
StatCollection
p384
(dp385
g3
I200
sg4
F11.203341007232666
sg5
F12.292614936828613
sg6
I2
sg7
F24.585229873657227
sg8
F12.292725563049316
sg9
S'OK'
p386
sg11
S'16:43:22'
p387
sg13
I0
sg14
F24.585451126098633
sg15
I814
sbsI94
(icore.engine
StatCollection
p388
(dp389
g3
I200
sg4
F9.876667022705078
sg5
F14.57990288734436
sg6
I2
sg7
F29.15980577468872
sg8
F14.57998502254486
sg9
S'OK'
p390
sg11
S'16:43:22'
p391
sg13
I0
sg14
F29.15997004508972
sg15
I814
sbsI95
(icore.engine
StatCollection
p392
(dp393
g3
I200
sg4
F20.73012614250183
sg5
F20.730048179626465
sg6
I1
sg7
F20.730048179626465
sg8
F20.73012614250183
sg9
S'OK'
p394
sg11
S'16:43:22'
p395
sg13
I0
sg14
F20.73012614250183
sg15
I407
sbsI96
(icore.engine
StatCollection
p396
(dp397
g3
I200
sg4
F12.545348882675171
sg5
F13.442935466766357
sg6
I2
sg7
F26.885870933532715
sg8
F13.443028926849365
sg9
S'OK'
p398
sg11
S'16:43:22'
p399
sg13
I0
sg14
F26.88605785369873
sg15
I814
sbsI97
(icore.engine
StatCollection
p400
(dp401
g3
I200
sg4
F20.09488081932068
sg5
F20.09479784965515
sg6
I1
sg7
F20.09479784965515
sg8
F20.09488081932068
sg9
S'OK'
p402
sg11
S'16:43:22'
p403
sg13
I0
sg14
F20.09488081932068
sg15
I407
sbsI98
(icore.engine
StatCollection
p404
(dp405
g3
I200
sg4
F21.112842082977295
sg5
F21.112728118896484
sg6
I1
sg7
F21.112728118896484
sg8
F21.112842082977295
sg9
S'OK'
p406
sg11
S'16:43:22'
p407
sg13
I0
sg14
F21.112842082977295
sg15
I407
sbsI99
(icore.engine
StatCollection
p408
(dp409
g3
I200
sg4
F9.713871955871582
sg5
F12.213660597801208
sg6
I2
sg7
F24.427321195602417
sg8
F12.213784456253052
sg9
S'OK'
p410
sg11
S'16:43:22'
p411
sg13
I0
sg14
F24.427568912506104
sg15
I814
sbsI100
(icore.engine
StatCollection
p412
(dp413
g3
I200
sg4
F12.500159978866577
sg5
F13.880136013031006
sg6
I2
sg7
F27.76027202606201
sg8
F13.880223512649536
sg9
S'OK'
p414
sg11
S'16:43:22'
p415
sg13
I0
sg14
F27.760447025299072
sg15
I814
sbsI101
(icore.engine
StatCollection
p416
(dp417
g3
I200
sg4
F11.52101182937622
sg5
F14.474645495414734
sg6
I2
sg7
F28.949290990829468
sg8
F14.474718451499939
sg9
S'OK'
p418
sg11
S'16:43:22'
p419
sg13
I0
sg14
F28.949436902999878
sg15
I814
sbsI102
(icore.engine
StatCollection
p420
(dp421
g3
I200
sg4
F9.989888906478882
sg5
F14.59145736694336
sg6
I2
sg7
F29.18291473388672
sg8
F14.59152090549469
sg9
S'OK'
p422
sg11
S'16:43:22'
p423
sg13
I0
sg14
F29.18304181098938
sg15
I814
sbsI103
(icore.engine
StatCollection
p424
(dp425
g3
I200
sg4
F20.333414793014526
sg5
F20.333342790603638
sg6
I1
sg7
F20.333342790603638
sg8
F20.333414793014526
sg9
S'OK'
p426
sg11
S'16:43:22'
p427
sg13
I0
sg14
F20.333414793014526
sg15
I407
sbsI104
(icore.engine
StatCollection
p428
(dp429
g3
I200
sg4
F20.314423084259033
sg5
F20.314348936080933
sg6
I1
sg7
F20.314348936080933
sg8
F20.314423084259033
sg9
S'OK'
p430
sg11
S'16:43:22'
p431
sg13
I0
sg14
F20.314423084259033
sg15
I407
sbsI105
(icore.engine
StatCollection
p432
(dp433
g3
I200
sg4
F10.044197082519531
sg5
F14.493420600891113
sg6
I2
sg7
F28.986841201782227
sg8
F14.493499040603638
sg9
S'OK'
p434
sg11
S'16:43:22'
p435
sg13
I0
sg14
F28.986998081207275
sg15
I814
sbsI106
(icore.engine
StatCollection
p436
(dp437
g3
I200
sg4
F11.597407817840576
sg5
F14.465602397918701
sg6
I2
sg7
F28.931204795837402
sg8
F14.465671420097351
sg9
S'OK'
p438
sg11
S'16:43:22'
p439
sg13
I0
sg14
F28.931342840194702
sg15
I814
sbsI107
(icore.engine
StatCollection
p440
(dp441
g3
I200
sg4
F12.22704792022705
sg5
F12.786350011825562
sg6
I2
sg7
F25.572700023651123
sg8
F12.786431074142456
sg9
S'OK'
p442
sg11
S'16:43:22'
p443
sg13
I0
sg14
F25.572862148284912
sg15
I814
sbsI108
(icore.engine
StatCollection
p444
(dp445
g3
I200
sg4
F13.216944932937622
sg5
F12.014031052589417
sg6
I2
sg7
F24.028062105178833
sg8
F12.014123439788818
sg9
S'OK'
p446
sg11
S'16:43:22'
p447
sg13
I0
sg14
F24.028246879577637
sg15
I814
sbsI109
(icore.engine
StatCollection
p448
(dp449
g3
I200
sg4
F11.175734043121338
sg5
F13.241407990455627
sg6
I2
sg7
F26.482815980911255
sg8
F13.241468071937561
sg9
S'OK'
p450
sg11
S'16:43:22'
p451
sg13
I0
sg14
F26.482936143875122
sg15
I814
sbsI110
(icore.engine
StatCollection
p452
(dp453
g3
I200
sg4
F20.01240086555481
sg5
F20.01232385635376
sg6
I1
sg7
F20.01232385635376
sg8
F20.01240086555481
sg9
S'OK'
p454
sg11
S'16:43:22'
p455
sg13
I0
sg14
F20.01240086555481
sg15
I407
sbsI111
(icore.engine
StatCollection
p456
(dp457
g3
I200
sg4
F10.606254816055298
sg5
F11.905794978141785
sg6
I2
sg7
F23.81158995628357
sg8
F11.905920386314392
sg9
S'OK'
p458
sg11
S'16:43:22'
p459
sg13
I0
sg14
F23.811840772628784
sg15
I814
sbsI112
(icore.engine
StatCollection
p460
(dp461
g3
I200
sg4
F13.011750936508179
sg5
F14.160067915916443
sg6
I2
sg7
F28.320135831832886
sg8
F14.160161972045898
sg9
S'OK'
p462
sg11
S'16:43:22'
p463
sg13
I0
sg14
F28.320323944091797
sg15
I814
sbsI113
(icore.engine
StatCollection
p464
(dp465
g3
I200
sg4
F20.3089919090271
sg5
F20.308933973312378
sg6
I1
sg7
F20.308933973312378
sg8
F20.3089919090271
sg9
S'OK'
p466
sg11
S'16:43:22'
p467
sg13
I0
sg14
F20.3089919090271
sg15
I407
sbsI114
(icore.engine
StatCollection
p468
(dp469
g3
I200
sg4
F20.006155967712402
sg5
F20.006067991256714
sg6
I1
sg7
F20.006067991256714
sg8
F20.006155967712402
sg9
S'OK'
p470
sg11
S'16:43:22'
p471
sg13
I0
sg14
F20.006155967712402
sg15
I407
sbsI115
(icore.engine
StatCollection
p472
(dp473
g3
I200
sg4
F10.254005908966064
sg5
F14.607205510139465
sg6
I2
sg7
F29.21441102027893
sg8
F14.607274889945984
sg9
S'OK'
p474
sg11
S'16:43:22'
p475
sg13
I0
sg14
F29.214549779891968
sg15
I814
sbsI116
(icore.engine
StatCollection
p476
(dp477
g3
I200
sg4
F20.311872005462646
sg5
F20.311800003051758
sg6
I1
sg7
F20.311800003051758
sg8
F20.311872005462646
sg9
S'OK'
p478
sg11
S'16:43:22'
p479
sg13
I0
sg14
F20.311872005462646
sg15
I407
sbsI117
(icore.engine
StatCollection
p480
(dp481
g3
I200
sg4
F14.534363985061646
sg5
F13.83459997177124
sg6
I2
sg7
F27.66919994354248
sg8
F13.834697484970093
sg9
S'OK'
p482
sg11
S'16:43:22'
p483
sg13
I0
sg14
F27.669394969940186
sg15
I814
sbsI118
(icore.engine
StatCollection
p484
(dp485
g3
I200
sg4
F21.786882162094116
sg5
F21.786813974380493
sg6
I1
sg7
F21.786813974380493
sg8
F21.786882162094116
sg9
S'OK'
p486
sg11
S'16:43:22'
p487
sg13
I0
sg14
F21.786882162094116
sg15
I407
sbsI119
(icore.engine
StatCollection
p488
(dp489
g3
I200
sg4
F10.101646184921265
sg5
F14.531067490577698
sg6
I2
sg7
F29.062134981155396
sg8
F14.531143069267273
sg9
S'OK'
p490
sg11
S'16:43:22'
p491
sg13
I0
sg14
F29.062286138534546
sg15
I814
sbsI120
(icore.engine
StatCollection
p492
(dp493
g3
I200
sg4
F12.713575839996338
sg5
F13.969924926757812
sg6
I2
sg7
F27.939849853515625
sg8
F13.969998955726624
sg9
S'OK'
p494
sg11
S'16:43:22'
p495
sg13
I0
sg14
F27.939997911453247
sg15
I814
sbsI121
(icore.engine
StatCollection
p496
(dp497
g3
I200
sg4
F13.777573108673096
sg5
F13.230177521705627
sg6
I2
sg7
F26.460355043411255
sg8
F13.230286121368408
sg9
S'OK'
p498
sg11
S'16:43:22'
p499
sg13
I0
sg14
F26.460572242736816
sg15
I814
sbsI122
(icore.engine
StatCollection
p500
(dp501
g3
I200
sg4
F11.9220871925354
sg5
F13.450603485107422
sg6
I2
sg7
F26.901206970214844
sg8
F13.450677037239075
sg9
S'OK'
p502
sg11
S'16:43:22'
p503
sg13
I0
sg14
F26.90135407447815
sg15
I814
sbsI123
(icore.engine
StatCollection
p504
(dp505
g3
I200
sg4
F20.241364002227783
sg5
F20.241275787353516
sg6
I1
sg7
F20.241275787353516
sg8
F20.241364002227783
sg9
S'OK'
p506
sg11
S'16:43:22'
p507
sg13
I0
sg14
F20.241364002227783
sg15
I407
sbsI124
(icore.engine
StatCollection
p508
(dp509
g3
I200
sg4
F9.990150928497314
sg5
F14.462842583656311
sg6
I2
sg7
F28.925685167312622
sg8
F14.46289348602295
sg9
S'OK'
p510
sg11
S'16:43:22'
p511
sg13
I0
sg14
F28.9257869720459
sg15
I814
sbsI125
(icore.engine
StatCollection
p512
(dp513
g3
I200
sg4
F20.298574209213257
sg5
F20.29851508140564
sg6
I1
sg7
F20.29851508140564
sg8
F20.298574209213257
sg9
S'OK'
p514
sg11
S'16:43:22'
p515
sg13
I0
sg14
F20.298574209213257
sg15
I407
sbsI126
(icore.engine
StatCollection
p516
(dp517
g3
I200
sg4
F12.106673002243042
sg5
F12.793603420257568
sg6
I2
sg7
F25.587206840515137
sg8
F12.793670892715454
sg9
S'OK'
p518
sg11
S'16:43:22'
p519
sg13
I0
sg14
F25.587341785430908
sg15
I814
sbsI127
(icore.engine
StatCollection
p520
(dp521
g3
I200
sg4
F12.886425971984863
sg5
F13.802437901496887
sg6
I2
sg7
F27.604875802993774
sg8
F13.802556037902832
sg9
S'OK'
p522
sg11
S'16:43:22'
p523
sg13
I0
sg14
F27.605112075805664
sg15
I814
sbsI128
(icore.engine
StatCollection
p524
(dp525
g3
I200
sg4
F12.094093084335327
sg5
F13.794097065925598
sg6
I2
sg7
F27.588194131851196
sg8
F13.794190526008606
sg9
S'OK'
p526
sg11
S'16:43:22'
p527
sg13
I0
sg14
F27.588381052017212
sg15
I814
sbsI129
(icore.engine
StatCollection
p528
(dp529
g3
I200
sg4
F12.472349166870117
sg5
F13.716712594032288
sg6
I2
sg7
F27.433425188064575
sg8
F13.716836094856262
sg9
S'OK'
p530
sg11
S'16:43:22'
p531
sg13
I0
sg14
F27.433672189712524
sg15
I814
sbsI130
(icore.engine
StatCollection
p532
(dp533
g3
I200
sg4
F9.967901945114136
sg5
F14.457552552223206
sg6
I2
sg7
F28.91510510444641
sg8
F14.457623481750488
sg9
S'OK'
p534
sg11
S'16:43:22'
p535
sg13
I0
sg14
F28.915246963500977
sg15
I814
sbsI131
(icore.engine
StatCollection
p536
(dp537
g3
I200
sg4
F10.426551818847656
sg5
F11.841784000396729
sg6
I2
sg7
F23.683568000793457
sg8
F11.841912984848022
sg9
S'OK'
p538
sg11
S'16:43:22'
p539
sg13
I0
sg14
F23.683825969696045
sg15
I814
sbsI132
(icore.engine
StatCollection
p540
(dp541
g3
I200
sg4
F12.94759488105774
sg5
F14.09016489982605
sg6
I2
sg7
F28.1803297996521
sg8
F14.090257406234741
sg9
S'OK'
p542
sg11
S'16:43:22'
p543
sg13
I0
sg14
F28.180514812469482
sg15
I814
sbsI133
(icore.engine
StatCollection
p544
(dp545
g3
I200
sg4
F12.900864124298096
sg5
F13.066035509109497
sg6
I2
sg7
F26.132071018218994
sg8
F13.066158056259155
sg9
S'OK'
p546
sg11
S'16:43:22'
p547
sg13
I0
sg14
F26.13231611251831
sg15
I814
sbsI134
(icore.engine
StatCollection
p548
(dp549
g3
I200
sg4
F10.43667197227478
sg5
F13.911468505859375
sg6
I2
sg7
F27.82293701171875
sg8
F13.911539435386658
sg9
S'OK'
p550
sg11
S'16:43:22'
p551
sg13
I0
sg14
F27.823078870773315
sg15
I814
sbsI135
(icore.engine
StatCollection
p552
(dp553
g3
I200
sg4
F9.523077011108398
sg5
F12.36322808265686
sg6
I2
sg7
F24.72645616531372
sg8
F12.36330258846283
sg9
S'OK'
p554
sg11
S'16:43:22'
p555
sg13
I0
sg14
F24.72660517692566
sg15
I814
sbsI136
(icore.engine
StatCollection
p556
(dp557
g3
I200
sg4
F20.29222011566162
sg5
F20.29212999343872
sg6
I1
sg7
F20.29212999343872
sg8
F20.29222011566162
sg9
S'OK'
p558
sg11
S'16:43:22'
p559
sg13
I0
sg14
F20.29222011566162
sg15
I407
sbsI137
(icore.engine
StatCollection
p560
(dp561
g3
I200
sg4
F12.407742977142334
sg5
F13.274122476577759
sg6
I2
sg7
F26.548244953155518
sg8
F13.274189949035645
sg9
S'OK'
p562
sg11
S'16:43:22'
p563
sg13
I0
sg14
F26.54837989807129
sg15
I814
sbsI138
(icore.engine
StatCollection
p564
(dp565
g3
I200
sg4
F12.574678182601929
sg5
F13.88943612575531
sg6
I2
sg7
F27.77887225151062
sg8
F13.889509201049805
sg9
S'OK'
p566
sg11
S'16:43:22'
p567
sg13
I0
sg14
F27.77901840209961
sg15
I814
sbsI139
(icore.engine
StatCollection
p568
(dp569
g3
I200
sg4
F10.580021858215332
sg5
F13.439633965492249
sg6
I2
sg7
F26.879267930984497
sg8
F13.43971300125122
sg9
S'OK'
p570
sg11
S'16:43:22'
p571
sg13
I0
sg14
F26.87942600250244
sg15
I814
sbsI140
(icore.engine
StatCollection
p572
(dp573
g3
I200
sg4
F20.16910696029663
sg5
F20.169042110443115
sg6
I1
sg7
F20.169042110443115
sg8
F20.16910696029663
sg9
S'OK'
p574
sg11
S'16:43:22'
p575
sg13
I0
sg14
F20.16910696029663
sg15
I407
sbsI141
(icore.engine
StatCollection
p576
(dp577
g3
I200
sg4
F20.289252042770386
sg5
F20.28919005393982
sg6
I1
sg7
F20.28919005393982
sg8
F20.289252042770386
sg9
S'OK'
p578
sg11
S'16:43:22'
p579
sg13
I0
sg14
F20.289252042770386
sg15
I407
sbsI142
(icore.engine
StatCollection
p580
(dp581
g3
I200
sg4
F11.405603885650635
sg5
F14.39057195186615
sg6
I2
sg7
F28.7811439037323
sg8
F14.390631914138794
sg9
S'OK'
p582
sg11
S'16:43:22'
p583
sg13
I0
sg14
F28.781263828277588
sg15
I814
sbsI143
(icore.engine
StatCollection
p584
(dp585
g3
I200
sg4
F12.986804962158203
sg5
F13.341278553009033
sg6
I2
sg7
F26.682557106018066
sg8
F13.341398000717163
sg9
S'OK'
p586
sg11
S'16:43:22'
p587
sg13
I0
sg14
F26.682796001434326
sg15
I814
sbsI144
(icore.engine
StatCollection
p588
(dp589
g3
I200
sg4
F13.131430864334106
sg5
F13.289576411247253
sg6
I2
sg7
F26.579152822494507
sg8
F13.289692401885986
sg9
S'OK'
p590
sg11
S'16:43:22'
p591
sg13
I0
sg14
F26.579384803771973
sg15
I814
sbsI145
(icore.engine
StatCollection
p592
(dp593
g3
I200
sg4
F11.748398065567017
sg5
F14.568111538887024
sg6
I2
sg7
F29.136223077774048
sg8
F14.568175554275513
sg9
S'OK'
p594
sg11
S'16:43:22'
p595
sg13
I0
sg14
F29.136351108551025
sg15
I814
sbsI146
(icore.engine
StatCollection
p596
(dp597
g3
I200
sg4
F11.876130104064941
sg5
F13.545151948928833
sg6
I2
sg7
F27.090303897857666
sg8
F13.54522454738617
sg9
S'OK'
p598
sg11
S'16:43:22'
p599
sg13
I0
sg14
F27.09044909477234
sg15
I814
sbsI147
(icore.engine
StatCollection
p600
(dp601
g3
I200
sg4
F11.983431100845337
sg5
F13.727868437767029
sg6
I2
sg7
F27.455736875534058
sg8
F13.727975010871887
sg9
S'OK'
p602
sg11
S'16:43:22'
p603
sg13
I0
sg14
F27.455950021743774
sg15
I814
sbsI148
(icore.engine
StatCollection
p604
(dp605
g3
I200
sg4
F8.763754844665527
sg5
F14.311169862747192
sg6
I2
sg7
F28.622339725494385
sg8
F14.311244368553162
sg9
S'OK'
p606
sg11
S'16:43:22'
p607
sg13
I0
sg14
F28.622488737106323
sg15
I814
sbsI149
(icore.engine
StatCollection
p608
(dp609
g3
I200
sg4
F13.557286977767944
sg5
F13.115800976753235
sg6
I2
sg7
F26.23160195350647
sg8
F13.115915417671204
sg9
S'OK'
p610
sg11
S'16:43:22'
p611
sg13
I0
sg14
F26.231830835342407
sg15
I814
sbsI150
(icore.engine
StatCollection
p612
(dp613
g3
I200
sg4
F13.166845083236694
sg5
F14.050952076911926
sg6
I2
sg7
F28.101904153823853
sg8
F14.05103349685669
sg9
S'OK'
p614
sg11
S'16:43:22'
p615
sg13
I0
sg14
F28.10206699371338
sg15
I814
sbsI151
(icore.engine
StatCollection
p616
(dp617
g3
I200
sg4
F9.097862958908081
sg5
F14.463078498840332
sg6
I2
sg7
F28.926156997680664
sg8
F14.463150024414062
sg9
S'OK'
p618
sg11
S'16:43:22'
p619
sg13
I0
sg14
F28.926300048828125
sg15
I814
sbsI152
(icore.engine
StatCollection
p620
(dp621
g3
I200
sg4
F20.250904083251953
sg5
F20.250842094421387
sg6
I1
sg7
F20.250842094421387
sg8
F20.250904083251953
sg9
S'OK'
p622
sg11
S'16:43:22'
p623
sg13
I0
sg14
F20.250904083251953
sg15
I407
sbsI153
(icore.engine
StatCollection
p624
(dp625
g3
I200
sg4
F11.742824077606201
sg5
F11.782710552215576
sg6
I2
sg7
F23.565421104431152
sg8
F11.782804608345032
sg9
S'OK'
p626
sg11
S'16:43:22'
p627
sg13
I0
sg14
F23.565609216690063
sg15
I814
sbsI154
(icore.engine
StatCollection
p628
(dp629
g3
I200
sg4
F11.020892143249512
sg5
F14.19207751750946
sg6
I2
sg7
F28.38415503501892
sg8
F14.192150115966797
sg9
S'OK'
p630
sg11
S'16:43:22'
p631
sg13
I0
sg14
F28.384300231933594
sg15
I814
sbsI155
(icore.engine
StatCollection
p632
(dp633
g3
I200
sg4
F9.718217134475708
sg5
F14.457794070243835
sg6
I2
sg7
F28.91558814048767
sg8
F14.45790708065033
sg9
S'OK'
p634
sg11
S'16:43:22'
p635
sg13
I0
sg14
F28.91581416130066
sg15
I814
sbsI156
(icore.engine
StatCollection
p636
(dp637
g3
I200
sg4
F12.021097898483276
sg5
F13.613291025161743
sg6
I2
sg7
F27.226582050323486
sg8
F13.613359451293945
sg9
S'OK'
p638
sg11
S'16:43:22'
p639
sg13
I0
sg14
F27.22671890258789
sg15
I814
sbsI157
(icore.engine
StatCollection
p640
(dp641
g3
I200
sg4
F9.392768859863281
sg5
F13.374032020568848
sg6
I2
sg7
F26.748064041137695
sg8
F13.374190926551819
sg9
S'OK'
p642
sg11
S'16:43:22'
p643
sg13
I0
sg14
F26.748381853103638
sg15
I814
sbsI158
(icore.engine
StatCollection
p644
(dp645
g3
I200
sg4
F22.254706859588623
sg5
F22.25464701652527
sg6
I1
sg7
F22.25464701652527
sg8
F22.254706859588623
sg9
S'OK'
p646
sg11
S'16:43:22'
p647
sg13
I0
sg14
F22.254706859588623
sg15
I407
sbsI159
(icore.engine
StatCollection
p648
(dp649
g3
I200
sg4
F13.252104043960571
sg5
F13.253002047538757
sg6
I2
sg7
F26.506004095077515
sg8
F13.253082990646362
sg9
S'OK'
p650
sg11
S'16:43:22'
p651
sg13
I0
sg14
F26.506165981292725
sg15
I814
sbsI160
(icore.engine
StatCollection
p652
(dp653
g3
I200
sg4
F9.811105012893677
sg5
F14.463497996330261
sg6
I2
sg7
F28.926995992660522
sg8
F14.46355950832367
sg9
S'OK'
p654
sg11
S'16:43:22'
p655
sg13
I0
sg14
F28.92711901664734
sg15
I814
sbsI161
(icore.engine
StatCollection
p656
(dp657
g3
I200
sg4
F20.249701976776123
sg5
F20.249629020690918
sg6
I1
sg7
F20.249629020690918
sg8
F20.249701976776123
sg9
S'OK'
p658
sg11
S'16:43:22'
p659
sg13
I0
sg14
F20.249701976776123
sg15
I407
sbsI162
(icore.engine
StatCollection
p660
(dp661
g3
I200
sg4
F10.73604702949524
sg5
F14.04598605632782
sg6
I2
sg7
F28.09197211265564
sg8
F14.04606008529663
sg9
S'OK'
p662
sg11
S'16:43:22'
p663
sg13
I0
sg14
F28.09212017059326
sg15
I814
sbsI163
(icore.engine
StatCollection
p664
(dp665
g3
I200
sg4
F10.69594693183899
sg5
F14.023491024971008
sg6
I2
sg7
F28.046982049942017
sg8
F14.023563981056213
sg9
S'OK'
p666
sg11
S'16:43:22'
p667
sg13
I0
sg14
F28.047127962112427
sg15
I814
sbsI164
(icore.engine
StatCollection
p668
(dp669
g3
I200
sg4
F12.478451013565063
sg5
F13.834008574485779
sg6
I2
sg7
F27.668017148971558
sg8
F13.834110021591187
sg9
S'OK'
p670
sg11
S'16:43:22'
p671
sg13
I0
sg14
F27.668220043182373
sg15
I814
sbsI165
(icore.engine
StatCollection
p672
(dp673
g3
I200
sg4
F20.18324089050293
sg5
F20.183167934417725
sg6
I1
sg7
F20.183167934417725
sg8
F20.18324089050293
sg9
S'OK'
p674
sg11
S'16:43:22'
p675
sg13
I0
sg14
F20.18324089050293
sg15
I407
sbsI166
(icore.engine
StatCollection
p676
(dp677
g3
I200
sg4
F11.413405895233154
sg5
F13.436709523200989
sg6
I2
sg7
F26.873419046401978
sg8
F13.43677842617035
sg9
S'OK'
p678
sg11
S'16:43:22'
p679
sg13
I0
sg14
F26.8735568523407
sg15
I814
sbsI167
(icore.engine
StatCollection
p680
(dp681
g3
I200
sg4
F12.105240106582642
sg5
F12.29419207572937
sg6
I2
sg7
F24.58838415145874
sg8
F12.294329524040222
sg9
S'OK'
p682
sg11
S'16:43:22'
p683
sg13
I0
sg14
F24.588659048080444
sg15
I814
sbsI168
(icore.engine
StatCollection
p684
(dp685
g3
I200
sg4
F12.069424867630005
sg5
F12.55669093132019
sg6
I2
sg7
F25.11338186264038
sg8
F12.556764006614685
sg9
S'OK'
p686
sg11
S'16:43:22'
p687
sg13
I0
sg14
F25.11352801322937
sg15
I814
sbsI169
(icore.engine
StatCollection
p688
(dp689
g3
I200
sg4
F20.62274694442749
sg5
F20.6226749420166
sg6
I1
sg7
F20.6226749420166
sg8
F20.62274694442749
sg9
S'OK'
p690
sg11
S'16:43:22'
p691
sg13
I0
sg14
F20.62274694442749
sg15
I407
sbsI170
(icore.engine
StatCollection
p692
(dp693
g3
I200
sg4
F20.879562854766846
sg5
F20.879472970962524
sg6
I1
sg7
F20.879472970962524
sg8
F20.879562854766846
sg9
S'OK'
p694
sg11
S'16:43:22'
p695
sg13
I0
sg14
F20.879562854766846
sg15
I407
sbsI171
(icore.engine
StatCollection
p696
(dp697
g3
I200
sg4
F12.96024489402771
sg5
F13.797475576400757
sg6
I2
sg7
F27.594951152801514
sg8
F13.797553539276123
sg9
S'OK'
p698
sg11
S'16:43:22'
p699
sg13
I0
sg14
F27.595107078552246
sg15
I814
sbsI172
(icore.engine
StatCollection
p700
(dp701
g3
I200
sg4
F10.435317039489746
sg5
F14.326167464256287
sg6
I2
sg7
F28.652334928512573
sg8
F14.326226472854614
sg9
S'OK'
p702
sg11
S'16:43:22'
p703
sg13
I0
sg14
F28.65245294570923
sg15
I814
sbsI173
(icore.engine
StatCollection
p704
(dp705
g3
I200
sg4
F20.22149395942688
sg5
F20.22144389152527
sg6
I1
sg7
F20.22144389152527
sg8
F20.22149395942688
sg9
S'OK'
p706
sg11
S'16:43:22'
p707
sg13
I0
sg14
F20.22149395942688
sg15
I407
sbsI174
(icore.engine
StatCollection
p708
(dp709
g3
I200
sg4
F10.894437074661255
sg5
F13.576558470726013
sg6
I2
sg7
F27.153116941452026
sg8
F13.576637029647827
sg9
S'OK'
p710
sg11
S'16:43:22'
p711
sg13
I0
sg14
F27.153274059295654
sg15
I814
sbsI175
(icore.engine
StatCollection
p712
(dp713
g3
I200
sg4
F10.013329982757568
sg5
F14.43263554573059
sg6
I2
sg7
F28.86527109146118
sg8
F14.432702541351318
sg9
S'OK'
p714
sg11
S'16:43:22'
p715
sg13
I0
sg14
F28.865405082702637
sg15
I814
sbsI176
(icore.engine
StatCollection
p716
(dp717
g3
I200
sg4
F20.95841407775879
sg5
F20.958317041397095
sg6
I1
sg7
F20.958317041397095
sg8
F20.95841407775879
sg9
S'OK'
p718
sg11
S'16:43:22'
p719
sg13
I0
sg14
F20.95841407775879
sg15
I407
sbsI177
(icore.engine
StatCollection
p720
(dp721
g3
I200
sg4
F9.24344515800476
sg5
F13.89409852027893
sg6
I2
sg7
F27.78819704055786
sg8
F13.894201517105103
sg9
S'OK'
p722
sg11
S'16:43:22'
p723
sg13
I0
sg14
F27.788403034210205
sg15
I814
sbsI178
(icore.engine
StatCollection
p724
(dp725
g3
I200
sg4
F9.901818990707397
sg5
F14.535452485084534
sg6
I2
sg7
F29.070904970169067
sg8
F14.535519003868103
sg9
S'OK'
p726
sg11
S'16:43:22'
p727
sg13
I0
sg14
F29.071038007736206
sg15
I814
sbsI179
(icore.engine
StatCollection
p728
(dp729
g3
I200
sg4
F12.433947086334229
sg5
F12.755015015602112
sg6
I2
sg7
F25.510030031204224
sg8
F12.755106091499329
sg9
S'OK'
p730
sg11
S'16:43:22'
p731
sg13
I0
sg14
F25.510212182998657
sg15
I814
sbsI180
(icore.engine
StatCollection
p732
(dp733
g3
I200
sg4
F20.976816177368164
sg5
F20.97674298286438
sg6
I1
sg7
F20.97674298286438
sg8
F20.976816177368164
sg9
S'OK'
p734
sg11
S'16:43:22'
p735
sg13
I0
sg14
F20.976816177368164
sg15
I407
sbsI181
(icore.engine
StatCollection
p736
(dp737
g3
I200
sg4
F22.031503915786743
sg5
F22.0314359664917
sg6
I1
sg7
F22.0314359664917
sg8
F22.031503915786743
sg9
S'OK'
p738
sg11
S'16:43:22'
p739
sg13
I0
sg14
F22.031503915786743
sg15
I407
sbsI182
(icore.engine
StatCollection
p740
(dp741
g3
I200
sg4
F9.94145917892456
sg5
F14.439736604690552
sg6
I2
sg7
F28.879473209381104
sg8
F14.439820051193237
sg9
S'OK'
p742
sg11
S'16:43:22'
p743
sg13
I0
sg14
F28.879640102386475
sg15
I814
sbsI183
(icore.engine
StatCollection
p744
(dp745
g3
I200
sg4
F11.722962141036987
sg5
F12.9656081199646
sg6
I2
sg7
F25.9312162399292
sg8
F12.96572208404541
sg9
S'OK'
p746
sg11
S'16:43:22'
p747
sg13
I0
sg14
F25.93144416809082
sg15
I814
sbsI184
(icore.engine
StatCollection
p748
(dp749
g3
I200
sg4
F8.944164037704468
sg5
F14.361951470375061
sg6
I2
sg7
F28.723902940750122
sg8
F14.362033605575562
sg9
S'OK'
p750
sg11
S'16:43:22'
p751
sg13
I0
sg14
F28.724067211151123
sg15
I814
sbsI185
(icore.engine
StatCollection
p752
(dp753
g3
I200
sg4
F9.147186040878296
sg5
F14.390710473060608
sg6
I2
sg7
F28.781420946121216
sg8
F14.390793561935425
sg9
S'OK'
p754
sg11
S'16:43:22'
p755
sg13
I0
sg14
F28.78158712387085
sg15
I814
sbsI186
(icore.engine
StatCollection
p756
(dp757
g3
I200
sg4
F9.511582136154175
sg5
F14.33178448677063
sg6
I2
sg7
F28.66356897354126
sg8
F14.331865549087524
sg9
S'OK'
p758
sg11
S'16:43:22'
p759
sg13
I0
sg14
F28.66373109817505
sg15
I814
sbsI187
(icore.engine
StatCollection
p760
(dp761
g3
I200
sg4
F9.911141157150269
sg5
F14.494055032730103
sg6
I2
sg7
F28.988110065460205
sg8
F14.494118094444275
sg9
S'OK'
p762
sg11
S'16:43:22'
p763
sg13
I0
sg14
F28.98823618888855
sg15
I814
sbsI188
(icore.engine
StatCollection
p764
(dp765
g3
I200
sg4
F10.015268087387085
sg5
F14.547526001930237
sg6
I2
sg7
F29.095052003860474
sg8
F14.54758906364441
sg9
S'OK'
p766
sg11
S'16:43:22'
p767
sg13
I0
sg14
F29.09517812728882
sg15
I814
sbsI189
(icore.engine
StatCollection
p768
(dp769
g3
I200
sg4
F12.132925033569336
sg5
F13.832606434822083
sg6
I2
sg7
F27.665212869644165
sg8
F13.832708477973938
sg9
S'OK'
p770
sg11
S'16:43:22'
p771
sg13
I0
sg14
F27.665416955947876
sg15
I814
sbsI190
(icore.engine
StatCollection
p772
(dp773
g3
I200
sg4
F11.453791856765747
sg5
F13.432613015174866
sg6
I2
sg7
F26.86522603034973
sg8
F13.432727932929993
sg9
S'OK'
p774
sg11
S'16:43:22'
p775
sg13
I0
sg14
F26.865455865859985
sg15
I814
sbsI191
(icore.engine
StatCollection
p776
(dp777
g3
I200
sg4
F20.22285485267639
sg5
F20.22279691696167
sg6
I1
sg7
F20.22279691696167
sg8
F20.22285485267639
sg9
S'OK'
p778
sg11
S'16:43:22'
p779
sg13
I0
sg14
F20.22285485267639
sg15
I407
sbsI192
(icore.engine
StatCollection
p780
(dp781
g3
I200
sg4
F9.921848058700562
sg5
F14.533504486083984
sg6
I2
sg7
F29.06700897216797
sg8
F14.533587098121643
sg9
S'OK'
p782
sg11
S'16:43:22'
p783
sg13
I0
sg14
F29.067174196243286
sg15
I814
sbsI193
(icore.engine
StatCollection
p784
(dp785
g3
I200
sg4
F20.207422018051147
sg5
F20.207345962524414
sg6
I1
sg7
F20.207345962524414
sg8
F20.207422018051147
sg9
S'OK'
p786
sg11
S'16:43:22'
p787
sg13
I0
sg14
F20.207422018051147
sg15
I407
sbsI194
(icore.engine
StatCollection
p788
(dp789
g3
I200
sg4
F10.263695001602173
sg5
F14.544050574302673
sg6
I2
sg7
F29.088101148605347
sg8
F14.544105529785156
sg9
S'OK'
p790
sg11
S'16:43:22'
p791
sg13
I0
sg14
F29.088211059570312
sg15
I814
sbsI195
(icore.engine
StatCollection
p792
(dp793
g3
I200
sg4
F9.631453037261963
sg5
F14.344848036766052
sg6
I2
sg7
F28.689696073532104
sg8
F14.344963550567627
sg9
S'OK'
p794
sg11
S'16:43:22'
p795
sg13
I0
sg14
F28.689927101135254
sg15
I814
sbsI196
(icore.engine
StatCollection
p796
(dp797
g3
I200
sg4
F9.790802001953125
sg5
F14.463959455490112
sg6
I2
sg7
F28.927918910980225
sg8
F14.464033961296082
sg9
S'OK'
p798
sg11
S'16:43:22'
p799
sg13
I0
sg14
F28.928067922592163
sg15
I814
sbsI197
(icore.engine
StatCollection
p800
(dp801
g3
I200
sg4
F11.698776960372925
sg5
F14.501701951026917
sg6
I2
sg7
F29.003403902053833
sg8
F14.501769423484802
sg9
S'OK'
p802
sg11
S'16:43:22'
p803
sg13
I0
sg14
F29.003538846969604
sg15
I814
sbsI198
(icore.engine
StatCollection
p804
(dp805
g3
I200
sg4
F12.566900968551636
sg5
F12.973029613494873
sg6
I2
sg7
F25.946059226989746
sg8
F12.973100066184998
sg9
S'OK'
p806
sg11
S'16:43:22'
p807
sg13
I0
sg14
F25.946200132369995
sg15
I814
sbsI199
(icore.engine
StatCollection
p808
(dp809
g3
I200
sg4
F20.848526000976562
sg5
F20.848459005355835
sg6
I1
sg7
F20.848459005355835
sg8
F20.848526000976562
sg9
S'OK'
p810
sg11
S'16:43:22'
p811
sg13
I0
sg14
F20.848526000976562
sg15
I407
sbsI200
(icore.engine
StatCollection
p812
(dp813
g3
I200
sg4
F9.930207967758179
sg5
F14.37258005142212
sg6
I2
sg7
F28.74516010284424
sg8
F14.372658014297485
sg9
S'OK'
p814
sg11
S'16:43:22'
p815
sg13
I0
sg14
F28.74531602859497
sg15
I814
sbsI201
(icore.engine
StatCollection
p816
(dp817
g3
I200
sg4
F8.655144929885864
sg5
F14.207462430000305
sg6
I2
sg7
F28.41492486000061
sg8
F14.207538485527039
sg9
S'OK'
p818
sg11
S'16:43:22'
p819
sg13
I0
sg14
F28.415076971054077
sg15
I814
sbsI202
(icore.engine
StatCollection
p820
(dp821
g3
I200
sg4
F20.832893133163452
sg5
F20.83280897140503
sg6
I1
sg7
F20.83280897140503
sg8
F20.832893133163452
sg9
S'OK'
p822
sg11
S'16:43:22'
p823
sg13
I0
sg14
F20.832893133163452
sg15
I407
sbsI203
(icore.engine
StatCollection
p824
(dp825
g3
I200
sg4
F11.869154930114746
sg5
F13.275824069976807
sg6
I2
sg7
F26.551648139953613
sg8
F13.275944948196411
sg9
S'OK'
p826
sg11
S'16:43:22'
p827
sg13
I0
sg14
F26.551889896392822
sg15
I814
sbsI204
(icore.engine
StatCollection
p828
(dp829
g3
I200
sg4
F11.525060892105103
sg5
F13.375751614570618
sg6
I2
sg7
F26.751503229141235
sg8
F13.375851511955261
sg9
S'OK'
p830
sg11
S'16:43:22'
p831
sg13
I0
sg14
F26.751703023910522
sg15
I814
sbsI205
(icore.engine
StatCollection
p832
(dp833
g3
I200
sg4
F10.03078317642212
sg5
F13.657668948173523
sg6
I2
sg7
F27.315337896347046
sg8
F13.657740592956543
sg9
S'OK'
p834
sg11
S'16:43:22'
p835
sg13
I0
sg14
F27.315481185913086
sg15
I814
sbsI206
(icore.engine
StatCollection
p836
(dp837
g3
I200
sg4
F9.497973918914795
sg5
F14.139156937599182
sg6
I2
sg7
F28.278313875198364
sg8
F14.139228463172913
sg9
S'OK'
p838
sg11
S'16:43:22'
p839
sg13
I0
sg14
F28.278456926345825
sg15
I814
sbsI207
(icore.engine
StatCollection
p840
(dp841
g3
I200
sg4
F9.192518949508667
sg5
F13.99625301361084
sg6
I2
sg7
F27.99250602722168
sg8
F13.99633252620697
sg9
S'OK'
p842
sg11
S'16:43:22'
p843
sg13
I0
sg14
F27.99266505241394
sg15
I814
sbsI208
(icore.engine
StatCollection
p844
(dp845
g3
I200
sg4
F11.658582925796509
sg5
F13.587693452835083
sg6
I2
sg7
F27.175386905670166
sg8
F13.587761402130127
sg9
S'OK'
p846
sg11
S'16:43:22'
p847
sg13
I0
sg14
F27.175522804260254
sg15
I814
sbsI209
(icore.engine
StatCollection
p848
(dp849
g3
I200
sg4
F20.194194078445435
sg5
F20.194138050079346
sg6
I1
sg7
F20.194138050079346
sg8
F20.194194078445435
sg9
S'OK'
p850
sg11
S'16:43:22'
p851
sg13
I0
sg14
F20.194194078445435
sg15
I407
sbsI210
(icore.engine
StatCollection
p852
(dp853
g3
I200
sg4
F11.294405937194824
sg5
F13.859652519226074
sg6
I2
sg7
F27.71930503845215
sg8
F13.85975205898285
sg9
S'OK'
p854
sg11
S'16:43:22'
p855
sg13
I0
sg14
F27.7195041179657
sg15
I814
sbsI211
(icore.engine
StatCollection
p856
(dp857
g3
I200
sg4
F20.181896924972534
sg5
F20.181837797164917
sg6
I1
sg7
F20.181837797164917
sg8
F20.181896924972534
sg9
S'OK'
p858
sg11
S'16:43:22'
p859
sg13
I0
sg14
F20.181896924972534
sg15
I407
sbsI212
(icore.engine
StatCollection
p860
(dp861
g3
I200
sg4
F9.636542081832886
sg5
F14.216138124465942
sg6
I2
sg7
F28.432276248931885
sg8
F14.216235518455505
sg9
S'OK'
p862
sg11
S'16:43:22'
p863
sg13
I0
sg14
F28.43247103691101
sg15
I814
sbsI213
(icore.engine
StatCollection
p864
(dp865
g3
I200
sg4
F10.18267297744751
sg5
F14.488736987113953
sg6
I2
sg7
F28.977473974227905
sg8
F14.488821983337402
sg9
S'OK'
p866
sg11
S'16:43:22'
p867
sg13
I0
sg14
F28.977643966674805
sg15
I814
sbsI214
(icore.engine
StatCollection
p868
(dp869
g3
I200
sg4
F20.81524109840393
sg5
F20.815119981765747
sg6
I1
sg7
F20.815119981765747
sg8
F20.81524109840393
sg9
S'OK'
p870
sg11
S'16:43:22'
p871
sg13
I0
sg14
F20.81524109840393
sg15
I407
sbsI215
(icore.engine
StatCollection
p872
(dp873
g3
I200
sg4
F20.82599687576294
sg5
F20.82593083381653
sg6
I1
sg7
F20.82593083381653
sg8
F20.82599687576294
sg9
S'OK'
p874
sg11
S'16:43:22'
p875
sg13
I0
sg14
F20.82599687576294
sg15
I407
sbsI216
(icore.engine
StatCollection
p876
(dp877
g3
I200
sg4
F12.755794048309326
sg5
F13.378174543380737
sg6
I2
sg7
F26.756349086761475
sg8
F13.378275036811829
sg9
S'OK'
p878
sg11
S'16:43:22'
p879
sg13
I0
sg14
F26.756550073623657
sg15
I814
sbsI217
(icore.engine
StatCollection
p880
(dp881
g3
I200
sg4
F11.1140878200531
sg5
F14.536244511604309
sg6
I2
sg7
F29.072489023208618
sg8
F14.536329507827759
sg9
S'OK'
p882
sg11
S'16:43:22'
p883
sg13
I0
sg14
F29.072659015655518
sg15
I814
sbsI218
(icore.engine
StatCollection
p884
(dp885
g3
I200
sg4
F19.85894799232483
sg5
F19.858877897262573
sg6
I1
sg7
F19.858877897262573
sg8
F19.85894799232483
sg9
S'OK'
p886
sg11
S'16:43:22'
p887
sg13
I0
sg14
F19.85894799232483
sg15
I407
sbsI219
(icore.engine
StatCollection
p888
(dp889
g3
I200
sg4
F9.586091041564941
sg5
F14.199465990066528
sg6
I2
sg7
F28.398931980133057
sg8
F14.199542045593262
sg9
S'OK'
p890
sg11
S'16:43:22'
p891
sg13
I0
sg14
F28.399084091186523
sg15
I814
sbsI220
(icore.engine
StatCollection
p892
(dp893
g3
I200
sg4
F12.958577156066895
sg5
F14.08935546875
sg6
I2
sg7
F28.1787109375
sg8
F14.08944308757782
sg9
S'OK'
p894
sg11
S'16:43:22'
p895
sg13
I0
sg14
F28.17888617515564
sg15
I814
sbsI221
(icore.engine
StatCollection
p896
(dp897
g3
I200
sg4
F19.858707189559937
sg5
F19.858625173568726
sg6
I1
sg7
F19.858625173568726
sg8
F19.858707189559937
sg9
S'OK'
p898
sg11
S'16:43:22'
p899
sg13
I0
sg14
F19.858707189559937
sg15
I407
sbsI222
(icore.engine
StatCollection
p900
(dp901
g3
I200
sg4
F20.942749977111816
sg5
F20.942678928375244
sg6
I1
sg7
F20.942678928375244
sg8
F20.942749977111816
sg9
S'OK'
p902
sg11
S'16:43:22'
p903
sg13
I0
sg14
F20.942749977111816
sg15
I407
sbsI223
(icore.engine
StatCollection
p904
(dp905
g3
I200
sg4
F9.889761924743652
sg5
F14.316486597061157
sg6
I2
sg7
F28.632973194122314
sg8
F14.31656801700592
sg9
S'OK'
p906
sg11
S'16:43:22'
p907
sg13
I0
sg14
F28.63313603401184
sg15
I814
sbsI224
(icore.engine
StatCollection
p908
(dp909
g3
I200
sg4
F19.849080085754395
sg5
F19.84902310371399
sg6
I1
sg7
F19.84902310371399
sg8
F19.849080085754395
sg9
S'OK'
p910
sg11
S'16:43:22'
p911
sg13
I0
sg14
F19.849080085754395
sg15
I407
sbsI225
(icore.engine
StatCollection
p912
(dp913
g3
I200
sg4
F8.727129936218262
sg5
F14.234451532363892
sg6
I2
sg7
F28.468903064727783
sg8
F14.234553933143616
sg9
S'OK'
p914
sg11
S'16:43:22'
p915
sg13
I0
sg14
F28.46910786628723
sg15
I814
sbsI226
(icore.engine
StatCollection
p916
(dp917
g3
I200
sg4
F10.210417985916138
sg5
F13.303927063941956
sg6
I2
sg7
F26.60785412788391
sg8
F13.304039001464844
sg9
S'OK'
p918
sg11
S'16:43:22'
p919
sg13
I0
sg14
F26.608078002929688
sg15
I814
sbsI227
(icore.engine
StatCollection
p920
(dp921
g3
I200
sg4
F21.710066080093384
sg5
F21.709986925125122
sg6
I1
sg7
F21.709986925125122
sg8
F21.710066080093384
sg9
S'OK'
p922
sg11
S'16:43:22'
p923
sg13
I0
sg14
F21.710066080093384
sg15
I407
sbsI228
(icore.engine
StatCollection
p924
(dp925
g3
I200
sg4
F9.874004125595093
sg5
F14.009938478469849
sg6
I2
sg7
F28.019876956939697
sg8
F14.010012030601501
sg9
S'OK'
p926
sg11
S'16:43:22'
p927
sg13
I0
sg14
F28.020024061203003
sg15
I814
sbsI229
(icore.engine
StatCollection
p928
(dp929
g3
I200
sg4
F12.832199096679688
sg5
F13.506213903427124
sg6
I2
sg7
F27.012427806854248
sg8
F13.506296038627625
sg9
S'OK'
p930
sg11
S'16:43:22'
p931
sg13
I0
sg14
F27.01259207725525
sg15
I814
sbsI230
(icore.engine
StatCollection
p932
(dp933
g3
I200
sg4
F10.118574857711792
sg5
F13.503994464874268
sg6
I2
sg7
F27.007988929748535
sg8
F13.504071354866028
sg9
S'OK'
p934
sg11
S'16:43:22'
p935
sg13
I0
sg14
F27.008142709732056
sg15
I814
sbsI231
(icore.engine
StatCollection
p936
(dp937
g3
I200
sg4
F9.891528844833374
sg5
F14.451361417770386
sg6
I2
sg7
F28.90272283554077
sg8
F14.451451897621155
sg9
S'OK'
p938
sg11
S'16:43:22'
p939
sg13
I0
sg14
F28.90290379524231
sg15
I814
sbsI232
(icore.engine
StatCollection
p940
(dp941
g3
I200
sg4
F9.38556981086731
sg5
F14.059960961341858
sg6
I2
sg7
F28.119921922683716
sg8
F14.060042381286621
sg9
S'OK'
p942
sg11
S'16:43:22'
p943
sg13
I0
sg14
F28.120084762573242
sg15
I814
sbsI233
(icore.engine
StatCollection
p944
(dp945
g3
I200
sg4
F19.896984100341797
sg5
F19.896913051605225
sg6
I1
sg7
F19.896913051605225
sg8
F19.896984100341797
sg9
S'OK'
p946
sg11
S'16:43:22'
p947
sg13
I0
sg14
F19.896984100341797
sg15
I407
sbsI234
(icore.engine
StatCollection
p948
(dp949
g3
I200
sg4
F10.02418303489685
sg5
F14.516791582107544
sg6
I2
sg7
F29.033583164215088
sg8
F14.516847610473633
sg9
S'OK'
p950
sg11
S'16:43:22'
p951
sg13
I0
sg14
F29.033695220947266
sg15
I814
sbsI235
(icore.engine
StatCollection
p952
(dp953
g3
I200
sg4
F9.934825897216797
sg5
F14.470086455345154
sg6
I2
sg7
F28.940172910690308
sg8
F14.470178961753845
sg9
S'OK'
p954
sg11
S'16:43:22'
p955
sg13
I0
sg14
F28.94035792350769
sg15
I814
sbsI236
(icore.engine
StatCollection
p956
(dp957
g3
I200
sg4
F10.813906908035278
sg5
F14.414421558380127
sg6
I2
sg7
F28.828843116760254
sg8
F14.414507031440735
sg9
S'OK'
p958
sg11
S'16:43:22'
p959
sg13
I0
sg14
F28.82901406288147
sg15
I814
sbsI237
(icore.engine
StatCollection
p960
(dp961
g3
I200
sg4
F14.146054983139038
sg5
F12.757932424545288
sg6
I2
sg7
F25.515864849090576
sg8
F12.758009910583496
sg9
S'OK'
p962
sg11
S'16:43:22'
p963
sg13
I0
sg14
F25.516019821166992
sg15
I814
sbsI238
(icore.engine
StatCollection
p964
(dp965
g3
I200
sg4
F20.921988010406494
sg5
F20.92193293571472
sg6
I1
sg7
F20.92193293571472
sg8
F20.921988010406494
sg9
S'OK'
p966
sg11
S'16:43:22'
p967
sg13
I0
sg14
F20.921988010406494
sg15
I407
sbsI239
(icore.engine
StatCollection
p968
(dp969
g3
I200
sg4
F9.911984920501709
sg5
F14.458271980285645
sg6
I2
sg7
F28.91654396057129
sg8
F14.458345890045166
sg9
S'OK'
p970
sg11
S'16:43:22'
p971
sg13
I0
sg14
F28.916691780090332
sg15
I814
sbsI240
(icore.engine
StatCollection
p972
(dp973
g3
I200
sg4
F9.88131308555603
sg5
F14.477160096168518
sg6
I2
sg7
F28.954320192337036
sg8
F14.477279543876648
sg9
S'OK'
p974
sg11
S'16:43:22'
p975
sg13
I0
sg14
F28.954559087753296
sg15
I814
sbsI241
(icore.engine
StatCollection
p976
(dp977
g3
I200
sg4
F20.073627948760986
sg5
F20.073559045791626
sg6
I1
sg7
F20.073559045791626
sg8
F20.073627948760986
sg9
S'OK'
p978
sg11
S'16:43:22'
p979
sg13
I0
sg14
F20.073627948760986
sg15
I407
sbsI242
(icore.engine
StatCollection
p980
(dp981
g3
I200
sg4
F13.05179500579834
sg5
F13.59830105304718
sg6
I2
sg7
F27.19660210609436
sg8
F13.598381519317627
sg9
S'OK'
p982
sg11
S'16:43:22'
p983
sg13
I0
sg14
F27.196763038635254
sg15
I814
sbsI243
(icore.engine
StatCollection
p984
(dp985
g3
I200
sg4
F20.131484031677246
sg5
F20.131404161453247
sg6
I1
sg7
F20.131404161453247
sg8
F20.131484031677246
sg9
S'OK'
p986
sg11
S'16:43:22'
p987
sg13
I0
sg14
F20.131484031677246
sg15
I407
sbsI244
(icore.engine
StatCollection
p988
(dp989
g3
I200
sg4
F10.70182490348816
sg5
F12.42798101902008
sg6
I2
sg7
F24.85596203804016
sg8
F12.42809545993805
sg9
S'OK'
p990
sg11
S'16:43:22'
p991
sg13
I0
sg14
F24.8561909198761
sg15
I814
sbsI245
(icore.engine
StatCollection
p992
(dp993
g3
I200
sg4
F9.662094116210938
sg5
F14.401635527610779
sg6
I2
sg7
F28.803271055221558
sg8
F14.40172255039215
sg9
S'OK'
p994
sg11
S'16:43:22'
p995
sg13
I0
sg14
F28.8034451007843
sg15
I814
sbsI246
(icore.engine
StatCollection
p996
(dp997
g3
I200
sg4
F11.692048072814941
sg5
F14.471359014511108
sg6
I2
sg7
F28.942718029022217
sg8
F14.471428990364075
sg9
S'OK'
p998
sg11
S'16:43:22'
p999
sg13
I0
sg14
F28.94285798072815
sg15
I814
sbsI247
(icore.engine
StatCollection
p1000
(dp1001
g3
I200
sg4
F9.708850145339966
sg5
F14.211216449737549
sg6
I2
sg7
F28.422432899475098
sg8
F14.211287498474121
sg9
S'OK'
p1002
sg11
S'16:43:22'
p1003
sg13
I0
sg14
F28.422574996948242
sg15
I814
sbsI248
(icore.engine
StatCollection
p1004
(dp1005
g3
I200
sg4
F9.809721946716309
sg5
F14.50965940952301
sg6
I2
sg7
F29.01931881904602
sg8
F14.509722471237183
sg9
S'OK'
p1006
sg11
S'16:43:22'
p1007
sg13
I0
sg14
F29.019444942474365
sg15
I814
sbsI249
(icore.engine
StatCollection
p1008
(dp1009
g3
I200
sg4
F20.125131130218506
sg5
F20.125066995620728
sg6
I1
sg7
F20.125066995620728
sg8
F20.125131130218506
sg9
S'OK'
p1010
sg11
S'16:43:22'
p1011
sg13
I0
sg14
F20.125131130218506
sg15
I407
sbsI250
(icore.engine
StatCollection
p1012
(dp1013
g3
I200
sg4
F21.71306014060974
sg5
F21.71296715736389
sg6
I1
sg7
F21.71296715736389
sg8
F21.71306014060974
sg9
S'OK'
p1014
sg11
S'16:43:22'
p1015
sg13
I0
sg14
F21.71306014060974
sg15
I407
sbsI251
(icore.engine
StatCollection
p1016
(dp1017
g3
I200
sg4
F20.129392862319946
sg5
F20.129329919815063
sg6
I1
sg7
F20.129329919815063
sg8
F20.129392862319946
sg9
S'OK'
p1018
sg11
S'16:43:22'
p1019
sg13
I0
sg14
F20.129392862319946
sg15
I407
sbsI252
(icore.engine
StatCollection
p1020
(dp1021
g3
I200
sg4
F20.064747095108032
sg5
F20.06467914581299
sg6
I1
sg7
F20.06467914581299
sg8
F20.064747095108032
sg9
S'OK'
p1022
sg11
S'16:43:22'
p1023
sg13
I0
sg14
F20.064747095108032
sg15
I407
sbsI253
(icore.engine
StatCollection
p1024
(dp1025
g3
I200
sg4
F11.657769918441772
sg5
F14.442567467689514
sg6
I2
sg7
F28.88513493537903
sg8
F14.442635416984558
sg9
S'OK'
p1026
sg11
S'16:43:22'
p1027
sg13
I0
sg14
F28.885270833969116
sg15
I814
sbsI254
(icore.engine
StatCollection
p1028
(dp1029
g3
I200
sg4
F11.35363221168518
sg5
F14.28411602973938
sg6
I2
sg7
F28.56823205947876
sg8
F14.284199595451355
sg9
S'OK'
p1030
sg11
S'16:43:22'
p1031
sg13
I0
sg14
F28.56839919090271
sg15
I814
sbsI255
(icore.engine
StatCollection
p1032
(dp1033
g3
I200
sg4
F20.10490107536316
sg5
F20.1048321723938
sg6
I1
sg7
F20.1048321723938
sg8
F20.10490107536316
sg9
S'OK'
p1034
sg11
S'16:43:22'
p1035
sg13
I0
sg14
F20.10490107536316
sg15
I407
sbsI256
(icore.engine
StatCollection
p1036
(dp1037
g3
I200
sg4
F12.977427959442139
sg5
F13.499597907066345
sg6
I2
sg7
F26.99919581413269
sg8
F13.49968945980072
sg9
S'OK'
p1038
sg11
S'16:43:22'
p1039
sg13
I0
sg14
F26.99937891960144
sg15
I814
sbsI257
(icore.engine
StatCollection
p1040
(dp1041
g3
I200
sg4
F11.505719900131226
sg5
F14.36238944530487
sg6
I2
sg7
F28.72477889060974
sg8
F14.362480401992798
sg9
S'OK'
p1042
sg11
S'16:43:22'
p1043
sg13
I0
sg14
F28.724960803985596
sg15
I814
sbsI258
(icore.engine
StatCollection
p1044
(dp1045
g3
I200
sg4
F7.879603862762451
sg5
F13.777652978897095
sg6
I2
sg7
F27.55530595779419
sg8
F13.777737975120544
sg9
S'OK'
p1046
sg11
S'16:43:22'
p1047
sg13
I0
sg14
F27.55547595024109
sg15
I814
sbsI259
(icore.engine
StatCollection
p1048
(dp1049
g3
I200
sg4
F12.785910844802856
sg5
F13.514061450958252
sg6
I2
sg7
F27.028122901916504
sg8
F13.514131903648376
sg9
S'OK'
p1050
sg11
S'16:43:22'
p1051
sg13
I0
sg14
F27.028263807296753
sg15
I814
sbsI260
(icore.engine
StatCollection
p1052
(dp1053
g3
I200
sg4
F9.565918922424316
sg5
F14.14777398109436
sg6
I2
sg7
F28.29554796218872
sg8
F14.147854447364807
sg9
S'OK'
p1054
sg11
S'16:43:22'
p1055
sg13
I0
sg14
F28.295708894729614
sg15
I814
sbsI261
(icore.engine
StatCollection
p1056
(dp1057
g3
I200
sg4
F9.267680168151855
sg5
F14.470767974853516
sg6
I2
sg7
F28.94153594970703
sg8
F14.470844149589539
sg9
S'OK'
p1058
sg11
S'16:43:22'
p1059
sg13
I0
sg14
F28.941688299179077
sg15
I814
sbsI262
(icore.engine
StatCollection
p1060
(dp1061
g3
I200
sg4
F8.799278974533081
sg5
F14.248952507972717
sg6
I2
sg7
F28.497905015945435
sg8
F14.249030947685242
sg9
S'OK'
p1062
sg11
S'16:43:22'
p1063
sg13
I0
sg14
F28.498061895370483
sg15
I814
sbsI263
(icore.engine
StatCollection
p1064
(dp1065
g3
I200
sg4
F21.98016905784607
sg5
F21.980101108551025
sg6
I1
sg7
F21.980101108551025
sg8
F21.98016905784607
sg9
S'OK'
p1066
sg11
S'16:43:22'
p1067
sg13
I0
sg14
F21.98016905784607
sg15
I407
sbsI264
(icore.engine
StatCollection
p1068
(dp1069
g3
I200
sg4
F20.10962677001953
sg5
F20.109542846679688
sg6
I1
sg7
F20.109542846679688
sg8
F20.10962677001953
sg9
S'OK'
p1070
sg11
S'16:43:22'
p1071
sg13
I0
sg14
F20.10962677001953
sg15
I407
sbsI265
(icore.engine
StatCollection
p1072
(dp1073
g3
I200
sg4
F9.527675151824951
sg5
F14.283956050872803
sg6
I2
sg7
F28.567912101745605
sg8
F14.284049987792969
sg9
S'OK'
p1074
sg11
S'16:43:22'
p1075
sg13
I0
sg14
F28.568099975585938
sg15
I814
sbsI266
(icore.engine
StatCollection
p1076
(dp1077
g3
I200
sg4
F10.318253993988037
sg5
F13.761752009391785
sg6
I2
sg7
F27.52350401878357
sg8
F13.761834502220154
sg9
S'OK'
p1078
sg11
S'16:43:22'
p1079
sg13
I0
sg14
F27.523669004440308
sg15
I814
sbsI267
(icore.engine
StatCollection
p1080
(dp1081
g3
I200
sg4
F9.518700122833252
sg5
F14.303148984909058
sg6
I2
sg7
F28.606297969818115
sg8
F14.303223013877869
sg9
S'OK'
p1082
sg11
S'16:43:22'
p1083
sg13
I0
sg14
F28.606446027755737
sg15
I814
sbsI268
(icore.engine
StatCollection
p1084
(dp1085
g3
I200
sg4
F11.759299993515015
sg5
F11.62430453300476
sg6
I2
sg7
F23.24860906600952
sg8
F11.624380469322205
sg9
S'OK'
p1086
sg11
S'16:43:22'
p1087
sg13
I0
sg14
F23.24876093864441
sg15
I814
sbsI269
(icore.engine
StatCollection
p1088
(dp1089
g3
I200
sg4
F12.522260904312134
sg5
F13.805485367774963
sg6
I2
sg7
F27.610970735549927
sg8
F13.805581450462341
sg9
S'OK'
p1090
sg11
S'16:43:22'
p1091
sg13
I0
sg14
F27.611162900924683
sg15
I814
sbsI270
(icore.engine
StatCollection
p1092
(dp1093
g3
I200
sg4
F10.172482967376709
sg5
F14.43256962299347
sg6
I2
sg7
F28.86513924598694
sg8
F14.43266248703003
sg9
S'OK'
p1094
sg11
S'16:43:22'
p1095
sg13
I0
sg14
F28.86532497406006
sg15
I814
sbsI271
(icore.engine
StatCollection
p1096
(dp1097
g3
I200
sg4
F8.83759093284607
sg5
F14.244917035102844
sg6
I2
sg7
F28.48983407020569
sg8
F14.244996905326843
sg9
S'OK'
p1098
sg11
S'16:43:22'
p1099
sg13
I0
sg14
F28.489993810653687
sg15
I814
sbsI272
(icore.engine
StatCollection
p1100
(dp1101
g3
I200
sg4
F11.202983856201172
sg5
F13.769885540008545
sg6
I2
sg7
F27.53977108001709
sg8
F13.769989967346191
sg9
S'OK'
p1102
sg11
S'16:43:22'
p1103
sg13
I0
sg14
F27.539979934692383
sg15
I814
sbsI273
(icore.engine
StatCollection
p1104
(dp1105
g3
I200
sg4
F11.322130918502808
sg5
F14.258956909179688
sg6
I2
sg7
F28.517913818359375
sg8
F14.259049415588379
sg9
S'OK'
p1106
sg11
S'16:43:22'
p1107
sg13
I0
sg14
F28.518098831176758
sg15
I814
sbsI274
(icore.engine
StatCollection
p1108
(dp1109
g3
I200
sg4
F9.894317865371704
sg5
F14.486023902893066
sg6
I2
sg7
F28.972047805786133
sg8
F14.48608934879303
sg9
S'OK'
p1110
sg11
S'16:43:22'
p1111
sg13
I0
sg14
F28.97217869758606
sg15
I814
sbsI275
(icore.engine
StatCollection
p1112
(dp1113
g3
I200
sg4
F11.22642993927002
sg5
F12.439420461654663
sg6
I2
sg7
F24.878840923309326
sg8
F12.439547419548035
sg9
S'OK'
p1114
sg11
S'16:43:22'
p1115
sg13
I0
sg14
F24.87909483909607
sg15
I814
sbsI276
(icore.engine
StatCollection
p1116
(dp1117
g3
I200
sg4
F8.787858009338379
sg5
F14.061082601547241
sg6
I2
sg7
F28.122165203094482
sg8
F14.061165571212769
sg9
S'OK'
p1118
sg11
S'16:43:22'
p1119
sg13
I0
sg14
F28.122331142425537
sg15
I814
sbsI277
(icore.engine
StatCollection
p1120
(dp1121
g3
I200
sg4
F9.74264907836914
sg5
F14.406553983688354
sg6
I2
sg7
F28.81310796737671
sg8
F14.40664255619049
sg9
S'OK'
p1122
sg11
S'16:43:22'
p1123
sg13
I0
sg14
F28.81328511238098
sg15
I814
sbsI278
(icore.engine
StatCollection
p1124
(dp1125
g3
I200
sg4
F12.892996788024902
sg5
F13.708158373832703
sg6
I2
sg7
F27.416316747665405
sg8
F13.708248853683472
sg9
S'OK'
p1126
sg11
S'16:43:22'
p1127
sg13
I0
sg14
F27.416497707366943
sg15
I814
sbsI279
(icore.engine
StatCollection
p1128
(dp1129
g3
I200
sg4
F22.461135149002075
sg5
F22.461080074310303
sg6
I1
sg7
F22.461080074310303
sg8
F22.461135149002075
sg9
S'OK'
p1130
sg11
S'16:43:22'
p1131
sg13
I0
sg14
F22.461135149002075
sg15
I407
sbsI280
(icore.engine
StatCollection
p1132
(dp1133
g3
I200
sg4
F21.435808897018433
sg5
F21.435731887817383
sg6
I1
sg7
F21.435731887817383
sg8
F21.435808897018433
sg9
S'OK'
p1134
sg11
S'16:43:22'
p1135
sg13
I0
sg14
F21.435808897018433
sg15
I407
sbsI281
(icore.engine
StatCollection
p1136
(dp1137
g3
I200
sg4
F9.869065999984741
sg5
F14.269060969352722
sg6
I2
sg7
F28.538121938705444
sg8
F14.269132494926453
sg9
S'OK'
p1138
sg11
S'16:43:22'
p1139
sg13
I0
sg14
F28.538264989852905
sg15
I814
sbsI282
(icore.engine
StatCollection
p1140
(dp1141
g3
I200
sg4
F19.775325059890747
sg5
F19.77524209022522
sg6
I1
sg7
F19.77524209022522
sg8
F19.775325059890747
sg9
S'OK'
p1142
sg11
S'16:43:22'
p1143
sg13
I0
sg14
F19.775325059890747
sg15
I407
sbsI283
(icore.engine
StatCollection
p1144
(dp1145
g3
I200
sg4
F20.08934783935547
sg5
F20.08928894996643
sg6
I1
sg7
F20.08928894996643
sg8
F20.08934783935547
sg9
S'OK'
p1146
sg11
S'16:43:22'
p1147
sg13
I0
sg14
F20.08934783935547
sg15
I407
sbsI284
(icore.engine
StatCollection
p1148
(dp1149
g3
I200
sg4
F20.07310390472412
sg5
F20.07303500175476
sg6
I1
sg7
F20.07303500175476
sg8
F20.07310390472412
sg9
S'OK'
p1150
sg11
S'16:43:22'
p1151
sg13
I0
sg14
F20.07310390472412
sg15
I407
sbsI285
(icore.engine
StatCollection
p1152
(dp1153
g3
I200
sg4
F20.728264093399048
sg5
F20.728188037872314
sg6
I1
sg7
F20.728188037872314
sg8
F20.728264093399048
sg9
S'OK'
p1154
sg11
S'16:43:22'
p1155
sg13
I0
sg14
F20.728264093399048
sg15
I407
sbsI286
(icore.engine
StatCollection
p1156
(dp1157
g3
I200
sg4
F12.687806129455566
sg5
F14.075399041175842
sg6
I2
sg7
F28.150798082351685
sg8
F14.075465083122253
sg9
S'OK'
p1158
sg11
S'16:43:22'
p1159
sg13
I0
sg14
F28.150930166244507
sg15
I814
sbsI287
(icore.engine
StatCollection
p1160
(dp1161
g3
I200
sg4
F9.992775201797485
sg5
F14.355961084365845
sg6
I2
sg7
F28.71192216873169
sg8
F14.356029629707336
sg9
S'OK'
p1162
sg11
S'16:43:22'
p1163
sg13
I0
sg14
F28.712059259414673
sg15
I814
sbsI288
(icore.engine
StatCollection
p1164
(dp1165
g3
I200
sg4
F9.889366149902344
sg5
F14.409191489219666
sg6
I2
sg7
F28.81838297843933
sg8
F14.40928602218628
sg9
S'OK'
p1166
sg11
S'16:43:22'
p1167
sg13
I0
sg14
F28.81857204437256
sg15
I814
sbsI289
(icore.engine
StatCollection
p1168
(dp1169
g3
I200
sg4
F9.875559091567993
sg5
F14.477330565452576
sg6
I2
sg7
F28.95466113090515
sg8
F14.477389574050903
sg9
S'OK'
p1170
sg11
S'16:43:22'
p1171
sg13
I0
sg14
F28.954779148101807
sg15
I814
sbsI290
(icore.engine
StatCollection
p1172
(dp1173
g3
I200
sg4
F19.75348401069641
sg5
F19.75339698791504
sg6
I1
sg7
F19.75339698791504
sg8
F19.75348401069641
sg9
S'OK'
p1174
sg11
S'16:43:22'
p1175
sg13
I0
sg14
F19.75348401069641
sg15
I407
sbsI291
(icore.engine
StatCollection
p1176
(dp1177
g3
I200
sg4
F19.760712146759033
sg5
F19.760650157928467
sg6
I1
sg7
F19.760650157928467
sg8
F19.760712146759033
sg9
S'OK'
p1178
sg11
S'16:43:22'
p1179
sg13
I0
sg14
F19.760712146759033
sg15
I407
sbsI292
(icore.engine
StatCollection
p1180
(dp1181
g3
I200
sg4
F21.37882900238037
sg5
F21.378770112991333
sg6
I1
sg7
F21.378770112991333
sg8
F21.37882900238037
sg9
S'OK'
p1182
sg11
S'16:43:22'
p1183
sg13
I0
sg14
F21.37882900238037
sg15
I407
sbsI293
(icore.engine
StatCollection
p1184
(dp1185
g3
I200
sg4
F21.27488088607788
sg5
F21.27483582496643
sg6
I1
sg7
F21.27483582496643
sg8
F21.27488088607788
sg9
S'OK'
p1186
sg11
S'16:43:22'
p1187
sg13
I0
sg14
F21.27488088607788
sg15
I407
sbsI294
(icore.engine
StatCollection
p1188
(dp1189
g3
I200
sg4
F10.264221906661987
sg5
F14.466042041778564
sg6
I2
sg7
F28.93208408355713
sg8
F14.466114521026611
sg9
S'OK'
p1190
sg11
S'16:43:22'
p1191
sg13
I0
sg14
F28.932229042053223
sg15
I814
sbsI295
(icore.engine
StatCollection
p1192
(dp1193
g3
I200
sg4
F20.061831951141357
sg5
F20.06175994873047
sg6
I1
sg7
F20.06175994873047
sg8
F20.061831951141357
sg9
S'OK'
p1194
sg11
S'16:43:22'
p1195
sg13
I0
sg14
F20.061831951141357
sg15
I407
sbsI296
(icore.engine
StatCollection
p1196
(dp1197
g3
I200
sg4
F20.068725109100342
sg5
F20.06864309310913
sg6
I1
sg7
F20.06864309310913
sg8
F20.068725109100342
sg9
S'OK'
p1198
sg11
S'16:43:22'
p1199
sg13
I0
sg14
F20.068725109100342
sg15
I407
sbsI297
(icore.engine
StatCollection
p1200
(dp1201
g3
I200
sg4
F9.220541000366211
sg5
F14.419103622436523
sg6
I2
sg7
F28.838207244873047
sg8
F14.419191598892212
sg9
S'OK'
p1202
sg11
S'16:43:22'
p1203
sg13
I0
sg14
F28.838383197784424
sg15
I814
sbsI298
(icore.engine
StatCollection
p1204
(dp1205
g3
I200
sg4
F20.70838689804077
sg5
F20.708334922790527
sg6
I1
sg7
F20.708334922790527
sg8
F20.70838689804077
sg9
S'OK'
p1206
sg11
S'16:43:22'
p1207
sg13
I0
sg14
F20.70838689804077
sg15
I407
sbsI299
(icore.engine
StatCollection
p1208
(dp1209
g3
I200
sg4
F22.495126008987427
sg5
F22.49505591392517
sg6
I1
sg7
F22.49505591392517
sg8
F22.495126008987427
sg9
S'OK'
p1210
sg11
S'16:43:22'
p1211
sg13
I0
sg14
F22.495126008987427
sg15
I407
sbsI300
(icore.engine
StatCollection
p1212
(dp1213
g3
I200
sg4
F20.051713943481445
sg5
F20.051652908325195
sg6
I1
sg7
F20.051652908325195
sg8
F20.051713943481445
sg9
S'OK'
p1214
sg11
S'16:43:22'
p1215
sg13
I0
sg14
F20.051713943481445
sg15
I407
sbsI301
(icore.engine
StatCollection
p1216
(dp1217
g3
I200
sg4
F9.362138986587524
sg5
F14.140455961227417
sg6
I2
sg7
F28.280911922454834
sg8
F14.140580415725708
sg9
S'OK'
p1218
sg11
S'16:43:22'
p1219
sg13
I0
sg14
F28.281160831451416
sg15
I814
sbsI302
(icore.engine
StatCollection
p1220
(dp1221
g3
I200
sg4
F10.09672212600708
sg5
F14.37989866733551
sg6
I2
sg7
F28.75979733467102
sg8
F14.379972100257874
sg9
S'OK'
p1222
sg11
S'16:43:22'
p1223
sg13
I0
sg14
F28.759944200515747
sg15
I814
sbsI303
(icore.engine
StatCollection
p1224
(dp1225
g3
I200
sg4
F10.011384963989258
sg5
F14.458815932273865
sg6
I2
sg7
F28.91763186454773
sg8
F14.458886504173279
sg9
S'OK'
p1226
sg11
S'16:43:22'
p1227
sg13
I0
sg14
F28.917773008346558
sg15
I814
sbsI304
(icore.engine
StatCollection
p1228
(dp1229
g3
I200
sg4
F9.309112787246704
sg5
F13.984886050224304
sg6
I2
sg7
F27.96977210044861
sg8
F13.984984397888184
sg9
S'OK'
p1230
sg11
S'16:43:22'
p1231
sg13
I0
sg14
F27.969968795776367
sg15
I814
sbsI305
(icore.engine
StatCollection
p1232
(dp1233
g3
I200
sg4
F20.69612693786621
sg5
F20.69606900215149
sg6
I1
sg7
F20.69606900215149
sg8
F20.69612693786621
sg9
S'OK'
p1234
sg11
S'16:43:22'
p1235
sg13
I0
sg14
F20.69612693786621
sg15
I407
sbsI306
(icore.engine
StatCollection
p1236
(dp1237
g3
I200
sg4
F9.3280668258667
sg5
F14.112468481063843
sg6
I2
sg7
F28.224936962127686
sg8
F14.112547993659973
sg9
S'OK'
p1238
sg11
S'16:43:22'
p1239
sg13
I0
sg14
F28.225095987319946
sg15
I814
sbsI307
(icore.engine
StatCollection
p1240
(dp1241
g3
I200
sg4
F12.280303955078125
sg5
F13.418123006820679
sg6
I2
sg7
F26.836246013641357
sg8
F13.418206453323364
sg9
S'OK'
p1242
sg11
S'16:43:22'
p1243
sg13
I0
sg14
F26.83641290664673
sg15
I814
sbsI308
(icore.engine
StatCollection
p1244
(dp1245
g3
I200
sg4
F10.259042978286743
sg5
F14.455642938613892
sg6
I2
sg7
F28.911285877227783
sg8
F14.45571494102478
sg9
S'OK'
p1246
sg11
S'16:43:22'
p1247
sg13
I0
sg14
F28.91142988204956
sg15
I814
sbsI309
(icore.engine
StatCollection
p1248
(dp1249
g3
I200
sg4
F8.98862099647522
sg5
F14.007389426231384
sg6
I2
sg7
F28.01477885246277
sg8
F14.007476449012756
sg9
S'OK'
p1250
sg11
S'16:43:22'
p1251
sg13
I0
sg14
F28.014952898025513
sg15
I814
sbsI310
(icore.engine
StatCollection
p1252
(dp1253
g3
I200
sg4
F12.106442928314209
sg5
F12.344342947006226
sg6
I2
sg7
F24.68868589401245
sg8
F12.344468474388123
sg9
S'OK'
p1254
sg11
S'16:43:22'
p1255
sg13
I0
sg14
F24.688936948776245
sg15
I814
sbsI311
(icore.engine
StatCollection
p1256
(dp1257
g3
I200
sg4
F20.049607038497925
sg5
F20.049549102783203
sg6
I1
sg7
F20.049549102783203
sg8
F20.049607038497925
sg9
S'OK'
p1258
sg11
S'16:43:22'
p1259
sg13
I0
sg14
F20.049607038497925
sg15
I407
sbsI312
(icore.engine
StatCollection
p1260
(dp1261
g3
I200
sg4
F9.819608926773071
sg5
F14.067074418067932
sg6
I2
sg7
F28.134148836135864
sg8
F14.067153453826904
sg9
S'OK'
p1262
sg11
S'16:43:22'
p1263
sg13
I0
sg14
F28.13430690765381
sg15
I814
sbsI313
(icore.engine
StatCollection
p1264
(dp1265
g3
I200
sg4
F21.384187936782837
sg5
F21.384109020233154
sg6
I1
sg7
F21.384109020233154
sg8
F21.384187936782837
sg9
S'OK'
p1266
sg11
S'16:43:22'
p1267
sg13
I0
sg14
F21.384187936782837
sg15
I407
sbsI314
(icore.engine
StatCollection
p1268
(dp1269
g3
I200
sg4
F8.950709104537964
sg5
F14.285797476768494
sg6
I2
sg7
F28.571594953536987
sg8
F14.28588855266571
sg9
S'OK'
p1270
sg11
S'16:43:22'
p1271
sg13
I0
sg14
F28.57177710533142
sg15
I814
sbsI315
(icore.engine
StatCollection
p1272
(dp1273
g3
I200
sg4
F20.042393922805786
sg5
F20.04231309890747
sg6
I1
sg7
F20.04231309890747
sg8
F20.042393922805786
sg9
S'OK'
p1274
sg11
S'16:43:22'
p1275
sg13
I0
sg14
F20.042393922805786
sg15
I407
sbsI316
(icore.engine
StatCollection
p1276
(dp1277
g3
I200
sg4
F20.031264066696167
sg5
F20.03120708465576
sg6
I1
sg7
F20.03120708465576
sg8
F20.031264066696167
sg9
S'OK'
p1278
sg11
S'16:43:22'
p1279
sg13
I0
sg14
F20.031264066696167
sg15
I407
sbsI317
(icore.engine
StatCollection
p1280
(dp1281
g3
I200
sg4
F21.570385932922363
sg5
F21.570269107818604
sg6
I1
sg7
F21.570269107818604
sg8
F21.570385932922363
sg9
S'OK'
p1282
sg11
S'16:43:22'
p1283
sg13
I0
sg14
F21.570385932922363
sg15
I407
sbsI318
(icore.engine
StatCollection
p1284
(dp1285
g3
I200
sg4
F20.03753399848938
sg5
F20.03747797012329
sg6
I1
sg7
F20.03747797012329
sg8
F20.03753399848938
sg9
S'OK'
p1286
sg11
S'16:43:22'
p1287
sg13
I0
sg14
F20.03753399848938
sg15
I407
sbsI319
(icore.engine
StatCollection
p1288
(dp1289
g3
I200
sg4
F20.018540859222412
sg5
F20.018476963043213
sg6
I1
sg7
F20.018476963043213
sg8
F20.018540859222412
sg9
S'OK'
p1290
sg11
S'16:43:22'
p1291
sg13
I0
sg14
F20.018540859222412
sg15
I407
sbsI320
(icore.engine
StatCollection
p1292
(dp1293
g3
I200
sg4
F9.631596088409424
sg5
F14.25769305229187
sg6
I2
sg7
F28.51538610458374
sg8
F14.257810473442078
sg9
S'OK'
p1294
sg11
S'16:43:22'
p1295
sg13
I0
sg14
F28.515620946884155
sg15
I814
sbsI321
(icore.engine
StatCollection
p1296
(dp1297
g3
I200
sg4
F21.027656078338623
sg5
F21.02757716178894
sg6
I1
sg7
F21.02757716178894
sg8
F21.027656078338623
sg9
S'OK'
p1298
sg11
S'16:43:22'
p1299
sg13
I0
sg14
F21.027656078338623
sg15
I407
sbsI322
(icore.engine
StatCollection
p1300
(dp1301
g3
I200
sg4
F20.004909992218018
sg5
F20.004806995391846
sg6
I1
sg7
F20.004806995391846
sg8
F20.004909992218018
sg9
S'OK'
p1302
sg11
S'16:43:22'
p1303
sg13
I0
sg14
F20.004909992218018
sg15
I407
sbsI323
(icore.engine
StatCollection
p1304
(dp1305
g3
I200
sg4
F20.00443196296692
sg5
F20.00437593460083
sg6
I1
sg7
F20.00437593460083
sg8
F20.00443196296692
sg9
S'OK'
p1306
sg11
S'16:43:22'
p1307
sg13
I0
sg14
F20.00443196296692
sg15
I407
sbsI324
(icore.engine
StatCollection
p1308
(dp1309
g3
I200
sg4
F22.329276084899902
sg5
F22.32918405532837
sg6
I1
sg7
F22.32918405532837
sg8
F22.329276084899902
sg9
S'OK'
p1310
sg11
S'16:43:22'
p1311
sg13
I0
sg14
F22.329276084899902
sg15
I407
sbsI325
(icore.engine
StatCollection
p1312
(dp1313
g3
I200
sg4
F20.07366394996643
sg5
F20.07357692718506
sg6
I1
sg7
F20.07357692718506
sg8
F20.07366394996643
sg9
S'OK'
p1314
sg11
S'16:43:22'
p1315
sg13
I0
sg14
F20.07366394996643
sg15
I407
sbsI326
(icore.engine
StatCollection
p1316
(dp1317
g3
I200
sg4
F20.02032208442688
sg5
F20.020162105560303
sg6
I1
sg7
F20.020162105560303
sg8
F20.02032208442688
sg9
S'OK'
p1318
sg11
S'16:43:22'
p1319
sg13
I0
sg14
F20.02032208442688
sg15
I407
sbsI327
(icore.engine
StatCollection
p1320
(dp1321
g3
I200
sg4
F19.997243881225586
sg5
F19.99714994430542
sg6
I1
sg7
F19.99714994430542
sg8
F19.997243881225586
sg9
S'OK'
p1322
sg11
S'16:43:22'
p1323
sg13
I0
sg14
F19.997243881225586
sg15
I407
sbsI328
(icore.engine
StatCollection
p1324
(dp1325
g3
I200
sg4
F10.255702018737793
sg5
F14.452733993530273
sg6
I2
sg7
F28.905467987060547
sg8
F14.452792525291443
sg9
S'OK'
p1326
sg11
S'16:43:22'
p1327
sg13
I0
sg14
F28.905585050582886
sg15
I814
sbsI329
(icore.engine
StatCollection
p1328
(dp1329
g3
I200
sg4
F10.22970986366272
sg5
F13.243305444717407
sg6
I2
sg7
F26.486610889434814
sg8
F13.243388414382935
sg9
S'OK'
p1330
sg11
S'16:43:22'
p1331
sg13
I0
sg14
F26.48677682876587
sg15
I814
sbsI330
(icore.engine
StatCollection
p1332
(dp1333
g3
I200
sg4
F20.00929284095764
sg5
F20.009216785430908
sg6
I1
sg7
F20.009216785430908
sg8
F20.00929284095764
sg9
S'OK'
p1334
sg11
S'16:43:22'
p1335
sg13
I0
sg14
F20.00929284095764
sg15
I407
sbsI331
(icore.engine
StatCollection
p1336
(dp1337
g3
I200
sg4
F21.31968116760254
sg5
F21.319586038589478
sg6
I1
sg7
F21.319586038589478
sg8
F21.31968116760254
sg9
S'OK'
p1338
sg11
S'16:43:22'
p1339
sg13
I0
sg14
F21.31968116760254
sg15
I407
sbsI332
(icore.engine
StatCollection
p1340
(dp1341
g3
I200
sg4
F10.144331932067871
sg5
F14.39655089378357
sg6
I2
sg7
F28.79310178756714
sg8
F14.396618485450745
sg9
S'OK'
p1342
sg11
S'16:43:22'
p1343
sg13
I0
sg14
F28.79323697090149
sg15
I814
sbsI333
(icore.engine
StatCollection
p1344
(dp1345
g3
I200
sg4
F19.941247940063477
sg5
F19.9411780834198
sg6
I1
sg7
F19.9411780834198
sg8
F19.941247940063477
sg9
S'OK'
p1346
sg11
S'16:43:22'
p1347
sg13
I0
sg14
F19.941247940063477
sg15
I407
sbsI334
(icore.engine
StatCollection
p1348
(dp1349
g3
I200
sg4
F9.171508073806763
sg5
F14.155415534973145
sg6
I2
sg7
F28.31083106994629
sg8
F14.15549647808075
sg9
S'OK'
p1350
sg11
S'16:43:22'
p1351
sg13
I0
sg14
F28.3109929561615
sg15
I814
sbsI335
(icore.engine
StatCollection
p1352
(dp1353
g3
I200
sg4
F11.379199981689453
sg5
F12.095817565917969
sg6
I2
sg7
F24.191635131835938
sg8
F12.09591805934906
sg9
S'OK'
p1354
sg11
S'16:43:22'
p1355
sg13
I0
sg14
F24.19183611869812
sg15
I814
sbsI336
(icore.engine
StatCollection
p1356
(dp1357
g3
I200
sg4
F20.64297103881836
sg5
F20.642889976501465
sg6
I1
sg7
F20.642889976501465
sg8
F20.64297103881836
sg9
S'OK'
p1358
sg11
S'16:43:22'
p1359
sg13
I0
sg14
F20.64297103881836
sg15
I407
sbsI337
(icore.engine
StatCollection
p1360
(dp1361
g3
I200
sg4
F19.993513107299805
sg5
F19.99344491958618
sg6
I1
sg7
F19.99344491958618
sg8
F19.993513107299805
sg9
S'OK'
p1362
sg11
S'16:43:22'
p1363
sg13
I0
sg14
F19.993513107299805
sg15
I407
sbsI338
(icore.engine
StatCollection
p1364
(dp1365
g3
I200
sg4
F21.99640202522278
sg5
F21.996284008026123
sg6
I1
sg7
F21.996284008026123
sg8
F21.99640202522278
sg9
S'OK'
p1366
sg11
S'16:43:22'
p1367
sg13
I0
sg14
F21.99640202522278
sg15
I407
sbsI339
(icore.engine
StatCollection
p1368
(dp1369
g3
I200
sg4
F12.193930864334106
sg5
F12.446490049362183
sg6
I2
sg7
F24.892980098724365
sg8
F12.44661295413971
sg9
S'OK'
p1370
sg11
S'16:43:22'
p1371
sg13
I0
sg14
F24.89322590827942
sg15
I814
sbsI340
(icore.engine
StatCollection
p1372
(dp1373
g3
I200
sg4
F9.803346872329712
sg5
F14.20716643333435
sg6
I2
sg7
F28.4143328666687
sg8
F14.207250475883484
sg9
S'OK'
p1374
sg11
S'16:43:22'
p1375
sg13
I0
sg14
F28.414500951766968
sg15
I814
sbsI341
(icore.engine
StatCollection
p1376
(dp1377
g3
I200
sg4
F20.171119928359985
sg5
F20.171049118041992
sg6
I1
sg7
F20.171049118041992
sg8
F20.171119928359985
sg9
S'OK'
p1378
sg11
S'16:43:22'
p1379
sg13
I0
sg14
F20.171119928359985
sg15
I407
sbsI342
(icore.engine
StatCollection
p1380
(dp1381
g3
I200
sg4
F21.535099983215332
sg5
F21.535022974014282
sg6
I1
sg7
F21.535022974014282
sg8
F21.535099983215332
sg9
S'OK'
p1382
sg11
S'16:43:22'
p1383
sg13
I0
sg14
F21.535099983215332
sg15
I407
sbsI343
(icore.engine
StatCollection
p1384
(dp1385
g3
I200
sg4
F21.342458963394165
sg5
F21.342316150665283
sg6
I1
sg7
F21.342316150665283
sg8
F21.342458963394165
sg9
S'OK'
p1386
sg11
S'16:43:22'
p1387
sg13
I0
sg14
F21.342458963394165
sg15
I407
sbsI344
(icore.engine
StatCollection
p1388
(dp1389
g3
I200
sg4
F8.529855966567993
sg5
F12.763365983963013
sg6
I2
sg7
F25.526731967926025
sg8
F12.763480424880981
sg9
S'OK'
p1390
sg11
S'16:43:22'
p1391
sg13
I0
sg14
F25.526960849761963
sg15
I814
sbsI345
(icore.engine
StatCollection
p1392
(dp1393
g3
I200
sg4
F9.775217056274414
sg5
F14.188733100891113
sg6
I2
sg7
F28.377466201782227
sg8
F14.188806533813477
sg9
S'OK'
p1394
sg11
S'16:43:22'
p1395
sg13
I0
sg14
F28.377613067626953
sg15
I814
sbsI346
(icore.engine
StatCollection
p1396
(dp1397
g3
I200
sg4
F10.649681091308594
sg5
F14.314703941345215
sg6
I2
sg7
F28.62940788269043
sg8
F14.314769506454468
sg9
S'OK'
p1398
sg11
S'16:43:22'
p1399
sg13
I0
sg14
F28.629539012908936
sg15
I814
sbsI347
(icore.engine
StatCollection
p1400
(dp1401
g3
I200
sg4
F9.628435850143433
sg5
F14.277377843856812
sg6
I2
sg7
F28.554755687713623
sg8
F14.277470350265503
sg9
S'OK'
p1402
sg11
S'16:43:22'
p1403
sg13
I0
sg14
F28.554940700531006
sg15
I814
sbsI348
(icore.engine
StatCollection
p1404
(dp1405
g3
I200
sg4
F10.543417930603027
sg5
F13.826985955238342
sg6
I2
sg7
F27.653971910476685
sg8
F13.82706344127655
sg9
S'OK'
p1406
sg11
S'16:43:22'
p1407
sg13
I0
sg14
F27.6541268825531
sg15
I814
sbsI349
(icore.engine
StatCollection
p1408
(dp1409
g3
I200
sg4
F20.763245105743408
sg5
F20.76318907737732
sg6
I1
sg7
F20.76318907737732
sg8
F20.763245105743408
sg9
S'OK'
p1410
sg11
S'16:43:22'
p1411
sg13
I0
sg14
F20.763245105743408
sg15
I407
sbsI350
(icore.engine
StatCollection
p1412
(dp1413
g3
I200
sg4
F10.857484102249146
sg5
F12.87863302230835
sg6
I2
sg7
F25.7572660446167
sg8
F12.87870705127716
sg9
S'OK'
p1414
sg11
S'16:43:22'
p1415
sg13
I0
sg14
F25.75741410255432
sg15
I814
sbsI351
(icore.engine
StatCollection
p1416
(dp1417
g3
I200
sg4
F21.37605595588684
sg5
F21.375963926315308
sg6
I1
sg7
F21.375963926315308
sg8
F21.37605595588684
sg9
S'OK'
p1418
sg11
S'16:43:22'
p1419
sg13
I0
sg14
F21.37605595588684
sg15
I407
sbsI352
(icore.engine
StatCollection
p1420
(dp1421
g3
I200
sg4
F19.972806930541992
sg5
F19.972753047943115
sg6
I1
sg7
F19.972753047943115
sg8
F19.972806930541992
sg9
S'OK'
p1422
sg11
S'16:43:22'
p1423
sg13
I0
sg14
F19.972806930541992
sg15
I407
sbsI353
(icore.engine
StatCollection
p1424
(dp1425
g3
I200
sg4
F19.983633995056152
sg5
F19.983552932739258
sg6
I1
sg7
F19.983552932739258
sg8
F19.983633995056152
sg9
S'OK'
p1426
sg11
S'16:43:22'
p1427
sg13
I0
sg14
F19.983633995056152
sg15
I407
sbsI354
(icore.engine
StatCollection
p1428
(dp1429
g3
I200
sg4
F20.146528959274292
sg5
F20.146428108215332
sg6
I1
sg7
F20.146428108215332
sg8
F20.146528959274292
sg9
S'OK'
p1430
sg11
S'16:43:22'
p1431
sg13
I0
sg14
F20.146528959274292
sg15
I407
sbsI355
(icore.engine
StatCollection
p1432
(dp1433
g3
I200
sg4
F20.005343914031982
sg5
F20.005286931991577
sg6
I1
sg7
F20.005286931991577
sg8
F20.005343914031982
sg9
S'OK'
p1434
sg11
S'16:43:22'
p1435
sg13
I0
sg14
F20.005343914031982
sg15
I407
sbsI356
(icore.engine
StatCollection
p1436
(dp1437
g3
I200
sg4
F21.479243993759155
sg5
F21.479169130325317
sg6
I1
sg7
F21.479169130325317
sg8
F21.479243993759155
sg9
S'OK'
p1438
sg11
S'16:43:22'
p1439
sg13
I0
sg14
F21.479243993759155
sg15
I407
sbsI357
(icore.engine
StatCollection
p1440
(dp1441
g3
I200
sg4
F9.859862089157104
sg5
F14.431885004043579
sg6
I2
sg7
F28.863770008087158
sg8
F14.431954503059387
sg9
S'OK'
p1442
sg11
S'16:43:22'
p1443
sg13
I0
sg14
F28.863909006118774
sg15
I814
sbsI358
(icore.engine
StatCollection
p1444
(dp1445
g3
I200
sg4
F19.971433877944946
sg5
F19.97133708000183
sg6
I1
sg7
F19.97133708000183
sg8
F19.971433877944946
sg9
S'OK'
p1446
sg11
S'16:43:22'
p1447
sg13
I0
sg14
F19.971433877944946
sg15
I407
sbsI359
(icore.engine
StatCollection
p1448
(dp1449
g3
I200
sg4
F13.466241836547852
sg5
F13.771339416503906
sg6
I2
sg7
F27.542678833007812
sg8
F13.771413445472717
sg9
S'OK'
p1450
sg11
S'16:43:22'
p1451
sg13
I0
sg14
F27.542826890945435
sg15
I814
sbsI360
(icore.engine
StatCollection
p1452
(dp1453
g3
I200
sg4
F19.98244595527649
sg5
F19.98238492012024
sg6
I1
sg7
F19.98238492012024
sg8
F19.98244595527649
sg9
S'OK'
p1454
sg11
S'16:43:22'
p1455
sg13
I0
sg14
F19.98244595527649
sg15
I407
sbsI361
(icore.engine
StatCollection
p1456
(dp1457
g3
I200
sg4
F19.959211111068726
sg5
F19.959129095077515
sg6
I1
sg7
F19.959129095077515
sg8
F19.959211111068726
sg9
S'OK'
p1458
sg11
S'16:43:22'
p1459
sg13
I0
sg14
F19.959211111068726
sg15
I407
sbsI362
(icore.engine
StatCollection
p1460
(dp1461
g3
I200
sg4
F19.950861930847168
sg5
F19.950806856155396
sg6
I1
sg7
F19.950806856155396
sg8
F19.950861930847168
sg9
S'OK'
p1462
sg11
S'16:43:22'
p1463
sg13
I0
sg14
F19.950861930847168
sg15
I407
sbsI363
(icore.engine
StatCollection
p1464
(dp1465
g3
I200
sg4
F13.910985946655273
sg5
F13.750185012817383
sg6
I2
sg7
F27.500370025634766
sg8
F13.750272512435913
sg9
S'OK'
p1466
sg11
S'16:43:22'
p1467
sg13
I0
sg14
F27.500545024871826
sg15
I814
sbsI364
(icore.engine
StatCollection
p1468
(dp1469
g3
I200
sg4
F9.2653329372406
sg5
F14.395825982093811
sg6
I2
sg7
F28.791651964187622
sg8
F14.395899534225464
sg9
S'OK'
p1470
sg11
S'16:43:22'
p1471
sg13
I0
sg14
F28.791799068450928
sg15
I814
sbsI365
(icore.engine
StatCollection
p1472
(dp1473
g3
I200
sg4
F19.964919090270996
sg5
F19.964847087860107
sg6
I1
sg7
F19.964847087860107
sg8
F19.964919090270996
sg9
S'OK'
p1474
sg11
S'16:43:22'
p1475
sg13
I0
sg14
F19.964919090270996
sg15
I407
sbsI366
(icore.engine
StatCollection
p1476
(dp1477
g3
I200
sg4
F19.966665983200073
sg5
F19.966595888137817
sg6
I1
sg7
F19.966595888137817
sg8
F19.966665983200073
sg9
S'OK'
p1478
sg11
S'16:43:22'
p1479
sg13
I0
sg14
F19.966665983200073
sg15
I407
sbsI367
(icore.engine
StatCollection
p1480
(dp1481
g3
I200
sg4
F22.272114992141724
sg5
F22.27202606201172
sg6
I1
sg7
F22.27202606201172
sg8
F22.272114992141724
sg9
S'OK'
p1482
sg11
S'16:43:22'
p1483
sg13
I0
sg14
F22.272114992141724
sg15
I407
sbsI368
(icore.engine
StatCollection
p1484
(dp1485
g3
I200
sg4
F10.184170961380005
sg5
F14.394428014755249
sg6
I2
sg7
F28.788856029510498
sg8
F14.394496440887451
sg9
S'OK'
p1486
sg11
S'16:43:22'
p1487
sg13
I0
sg14
F28.788992881774902
sg15
I814
sbsI369
(icore.engine
StatCollection
p1488
(dp1489
g3
I200
sg4
F20.597661018371582
sg5
F20.59756898880005
sg6
I1
sg7
F20.59756898880005
sg8
F20.597661018371582
sg9
S'OK'
p1490
sg11
S'16:43:22'
p1491
sg13
I0
sg14
F20.597661018371582
sg15
I407
sbsI370
(icore.engine
StatCollection
p1492
(dp1493
g3
I200
sg4
F10.197909832000732
sg5
F14.232824444770813
sg6
I2
sg7
F28.465648889541626
sg8
F14.232892394065857
sg9
S'OK'
p1494
sg11
S'16:43:22'
p1495
sg13
I0
sg14
F28.465784788131714
sg15
I814
sbsI371
(icore.engine
StatCollection
p1496
(dp1497
g3
I200
sg4
F10.236118793487549
sg5
F14.418442964553833
sg6
I2
sg7
F28.836885929107666
sg8
F14.418503403663635
sg9
S'OK'
p1498
sg11
S'16:43:22'
p1499
sg13
I0
sg14
F28.83700680732727
sg15
I814
sbsI372
(icore.engine
StatCollection
p1500
(dp1501
g3
I200
sg4
F9.761854887008667
sg5
F14.346702456474304
sg6
I2
sg7
F28.69340491294861
sg8
F14.346791982650757
sg9
S'OK'
p1502
sg11
S'16:43:22'
p1503
sg13
I0
sg14
F28.693583965301514
sg15
I814
sbsI373
(icore.engine
StatCollection
p1504
(dp1505
g3
I200
sg4
F19.978711128234863
sg5
F19.97863793373108
sg6
I1
sg7
F19.97863793373108
sg8
F19.978711128234863
sg9
S'OK'
p1506
sg11
S'16:43:22'
p1507
sg13
I0
sg14
F19.978711128234863
sg15
I407
sbsI374
(icore.engine
StatCollection
p1508
(dp1509
g3
I200
sg4
F19.948889017105103
sg5
F19.94882607460022
sg6
I1
sg7
F19.94882607460022
sg8
F19.948889017105103
sg9
S'OK'
p1510
sg11
S'16:43:22'
p1511
sg13
I0
sg14
F19.948889017105103
sg15
I407
sbsI375
(icore.engine
StatCollection
p1512
(dp1513
g3
I200
sg4
F9.421319007873535
sg5
F14.410284876823425
sg6
I2
sg7
F28.82056975364685
sg8
F14.410356998443604
sg9
S'OK'
p1514
sg11
S'16:43:22'
p1515
sg13
I0
sg14
F28.820713996887207
sg15
I814
sbsI376
(icore.engine
StatCollection
p1516
(dp1517
g3
I200
sg4
F21.158751010894775
sg5
F21.158674001693726
sg6
I1
sg7
F21.158674001693726
sg8
F21.158751010894775
sg9
S'OK'
p1518
sg11
S'16:43:22'
p1519
sg13
I0
sg14
F21.158751010894775
sg15
I407
sbsI377
(icore.engine
StatCollection
p1520
(dp1521
g3
I200
sg4
F19.943408966064453
sg5
F19.94334101676941
sg6
I1
sg7
F19.94334101676941
sg8
F19.943408966064453
sg9
S'OK'
p1522
sg11
S'16:43:22'
p1523
sg13
I0
sg14
F19.943408966064453
sg15
I407
sbsI378
(icore.engine
StatCollection
p1524
(dp1525
g3
I200
sg4
F13.056743144989014
sg5
F13.267929911613464
sg6
I2
sg7
F26.53585982322693
sg8
F13.268020987510681
sg9
S'OK'
p1526
sg11
S'16:43:22'
p1527
sg13
I0
sg14
F26.536041975021362
sg15
I814
sbsI379
(icore.engine
StatCollection
p1528
(dp1529
g3
I200
sg4
F9.916460037231445
sg5
F14.371145963668823
sg6
I2
sg7
F28.742291927337646
sg8
F14.371198058128357
sg9
S'OK'
p1530
sg11
S'16:43:22'
p1531
sg13
I0
sg14
F28.742396116256714
sg15
I814
sbsI380
(icore.engine
StatCollection
p1532
(dp1533
g3
I200
sg4
F11.382009983062744
sg5
F12.997620582580566
sg6
I2
sg7
F25.995241165161133
sg8
F12.997687935829163
sg9
S'OK'
p1534
sg11
S'16:43:22'
p1535
sg13
I0
sg14
F25.995375871658325
sg15
I814
sbsI381
(icore.engine
StatCollection
p1536
(dp1537
g3
I200
sg4
F10.193884134292603
sg5
F14.391165137290955
sg6
I2
sg7
F28.78233027458191
sg8
F14.391224145889282
sg9
S'OK'
p1538
sg11
S'16:43:22'
p1539
sg13
I0
sg14
F28.782448291778564
sg15
I814
sbsI382
(icore.engine
StatCollection
p1540
(dp1541
g3
I200
sg4
F9.560156106948853
sg5
F14.370327949523926
sg6
I2
sg7
F28.74065589904785
sg8
F14.37039852142334
sg9
S'OK'
p1542
sg11
S'16:43:22'
p1543
sg13
I0
sg14
F28.74079704284668
sg15
I814
sbsI383
(icore.engine
StatCollection
p1544
(dp1545
g3
I200
sg4
F12.57344102859497
sg5
F13.71302855014801
sg6
I2
sg7
F27.42605710029602
sg8
F13.713140964508057
sg9
S'OK'
p1546
sg11
S'16:43:22'
p1547
sg13
I0
sg14
F27.426281929016113
sg15
I814
sbsI384
(icore.engine
StatCollection
p1548
(dp1549
g3
I200
sg4
F9.209275007247925
sg5
F13.895803570747375
sg6
I2
sg7
F27.79160714149475
sg8
F13.895883560180664
sg9
S'OK'
p1550
sg11
S'16:43:22'
p1551
sg13
I0
sg14
F27.791767120361328
sg15
I814
sbsI385
(icore.engine
StatCollection
p1552
(dp1553
g3
I200
sg4
F10.047908067703247
sg5
F14.296114087104797
sg6
I2
sg7
F28.592228174209595
sg8
F14.296191573143005
sg9
S'OK'
p1554
sg11
S'16:43:22'
p1555
sg13
I0
sg14
F28.59238314628601
sg15
I814
sbsI386
(icore.engine
StatCollection
p1556
(dp1557
g3
I200
sg4
F12.394392013549805
sg5
F13.032935500144958
sg6
I2
sg7
F26.065871000289917
sg8
F13.032997965812683
sg9
S'OK'
p1558
sg11
S'16:43:22'
p1559
sg13
I0
sg14
F26.065995931625366
sg15
I814
sbsI387
(icore.engine
StatCollection
p1560
(dp1561
g3
I200
sg4
F9.12343692779541
sg5
F14.311785817146301
sg6
I2
sg7
F28.623571634292603
sg8
F14.311861395835876
sg9
S'OK'
p1562
sg11
S'16:43:22'
p1563
sg13
I0
sg14
F28.623722791671753
sg15
I814
sbsI388
(icore.engine
StatCollection
p1564
(dp1565
g3
I200
sg4
F19.92701005935669
sg5
F19.926950216293335
sg6
I1
sg7
F19.926950216293335
sg8
F19.92701005935669
sg9
S'OK'
p1566
sg11
S'16:43:22'
p1567
sg13
I0
sg14
F19.92701005935669
sg15
I407
sbsI389
(icore.engine
StatCollection
p1568
(dp1569
g3
I200
sg4
F9.18869686126709
sg5
F13.05945897102356
sg6
I2
sg7
F26.11891794204712
sg8
F13.059552431106567
sg9
S'OK'
p1570
sg11
S'16:43:22'
p1571
sg13
I0
sg14
F26.119104862213135
sg15
I814
sbsI390
(icore.engine
StatCollection
p1572
(dp1573
g3
I200
sg4
F21.2639000415802
sg5
F21.26383113861084
sg6
I1
sg7
F21.26383113861084
sg8
F21.2639000415802
sg9
S'OK'
p1574
sg11
S'16:43:22'
p1575
sg13
I0
sg14
F21.2639000415802
sg15
I407
sbsI391
(icore.engine
StatCollection
p1576
(dp1577
g3
I200
sg4
F19.92038607597351
sg5
F19.9203200340271
sg6
I1
sg7
F19.9203200340271
sg8
F19.92038607597351
sg9
S'OK'
p1578
sg11
S'16:43:22'
p1579
sg13
I0
sg14
F19.92038607597351
sg15
I407
sbsI392
(icore.engine
StatCollection
p1580
(dp1581
g3
I200
sg4
F20.27024793624878
sg5
F20.270190000534058
sg6
I1
sg7
F20.270190000534058
sg8
F20.27024793624878
sg9
S'OK'
p1582
sg11
S'16:43:22'
p1583
sg13
I0
sg14
F20.27024793624878
sg15
I407
sbsI393
(icore.engine
StatCollection
p1584
(dp1585
g3
I200
sg4
F19.918621063232422
sg5
F19.918540954589844
sg6
I1
sg7
F19.918540954589844
sg8
F19.918621063232422
sg9
S'OK'
p1586
sg11
S'16:43:22'
p1587
sg13
I0
sg14
F19.918621063232422
sg15
I407
sbsI394
(icore.engine
StatCollection
p1588
(dp1589
g3
I200
sg4
F10.14218783378601
sg5
F14.347912907600403
sg6
I2
sg7
F28.695825815200806
sg8
F14.347978830337524
sg9
S'OK'
p1590
sg11
S'16:43:22'
p1591
sg13
I0
sg14
F28.69595766067505
sg15
I814
sbsI395
(icore.engine
StatCollection
p1592
(dp1593
g3
I200
sg4
F22.295736074447632
sg5
F22.29567003250122
sg6
I1
sg7
F22.29567003250122
sg8
F22.295736074447632
sg9
S'OK'
p1594
sg11
S'16:43:22'
p1595
sg13
I0
sg14
F22.295736074447632
sg15
I407
sbsI396
(icore.engine
StatCollection
p1596
(dp1597
g3
I200
sg4
F19.904829025268555
sg5
F19.90474581718445
sg6
I1
sg7
F19.90474581718445
sg8
F19.904829025268555
sg9
S'OK'
p1598
sg11
S'16:43:22'
p1599
sg13
I0
sg14
F19.904829025268555
sg15
I407
sbsI397
(icore.engine
StatCollection
p1600
(dp1601
g3
I200
sg4
F19.85511803627014
sg5
F19.855061054229736
sg6
I1
sg7
F19.855061054229736
sg8
F19.85511803627014
sg9
S'OK'
p1602
sg11
S'16:43:22'
p1603
sg13
I0
sg14
F19.85511803627014
sg15
I407
sbsI398
(icore.engine
StatCollection
p1604
(dp1605
g3
I200
sg4
F10.114175796508789
sg5
F14.384530901908875
sg6
I2
sg7
F28.76906180381775
sg8
F14.384591341018677
sg9
S'OK'
p1606
sg11
S'16:43:22'
p1607
sg13
I0
sg14
F28.769182682037354
sg15
I814
sbsI399
(icore.engine
StatCollection
p1608
(dp1609
g3
I200
sg4
F9.881094932556152
sg5
F14.339380502700806
sg6
I2
sg7
F28.67876100540161
sg8
F14.33947741985321
sg9
S'OK'
p1610
sg11
S'16:43:22'
p1611
sg13
I0
sg14
F28.67895483970642
sg15
I814
sbsI400
(icore.engine
StatCollection
p1612
(dp1613
g3
I200
sg4
F20.69010305404663
sg5
F20.690003871917725
sg6
I1
sg7
F20.690003871917725
sg8
F20.69010305404663
sg9
S'OK'
p1614
sg11
S'16:43:22'
p1615
sg13
I0
sg14
F20.69010305404663
sg15
I407
sbsI401
(icore.engine
StatCollection
p1616
(dp1617
g3
I200
sg4
F9.703051090240479
sg5
F12.26884150505066
sg6
I2
sg7
F24.53768301010132
sg8
F12.26891803741455
sg9
S'OK'
p1618
sg11
S'16:43:22'
p1619
sg13
I0
sg14
F24.5378360748291
sg15
I814
sbsI402
(icore.engine
StatCollection
p1620
(dp1621
g3
I200
sg4
F19.895018100738525
sg5
F19.894946098327637
sg6
I1
sg7
F19.894946098327637
sg8
F19.895018100738525
sg9
S'OK'
p1622
sg11
S'16:43:22'
p1623
sg13
I0
sg14
F19.895018100738525
sg15
I407
sbsI403
(icore.engine
StatCollection
p1624
(dp1625
g3
I200
sg4
F9.717111110687256
sg5
F14.133045554161072
sg6
I2
sg7
F28.266091108322144
sg8
F14.133096575737
sg9
S'OK'
p1626
sg11
S'16:43:22'
p1627
sg13
I0
sg14
F28.266193151474
sg15
I814
sbsI404
(icore.engine
StatCollection
p1628
(dp1629
g3
I200
sg4
F10.556571960449219
sg5
F14.212570905685425
sg6
I2
sg7
F28.42514181137085
sg8
F14.212644457817078
sg9
S'OK'
p1630
sg11
S'16:43:22'
p1631
sg13
I0
sg14
F28.425288915634155
sg15
I814
sbsI405
(icore.engine
StatCollection
p1632
(dp1633
g3
I200
sg4
F10.394590139389038
sg5
F14.401733636856079
sg6
I2
sg7
F28.803467273712158
sg8
F14.401792049407959
sg9
S'OK'
p1634
sg11
S'16:43:22'
p1635
sg13
I0
sg14
F28.803584098815918
sg15
I814
sbsI406
(icore.engine
StatCollection
p1636
(dp1637
g3
I200
sg4
F21.218524932861328
sg5
F21.218454122543335
sg6
I1
sg7
F21.218454122543335
sg8
F21.218524932861328
sg9
S'OK'
p1638
sg11
S'16:43:22'
p1639
sg13
I0
sg14
F21.218524932861328
sg15
I407
sbsI407
(icore.engine
StatCollection
p1640
(dp1641
g3
I200
sg4
F9.314949035644531
sg5
F13.919592499732971
sg6
I2
sg7
F27.839184999465942
sg8
F13.91965651512146
sg9
S'OK'
p1642
sg11
S'16:43:22'
p1643
sg13
I0
sg14
F27.83931303024292
sg15
I814
sbsI408
(icore.engine
StatCollection
p1644
(dp1645
g3
I200
sg4
F19.839796781539917
sg5
F19.83971881866455
sg6
I1
sg7
F19.83971881866455
sg8
F19.839796781539917
sg9
S'OK'
p1646
sg11
S'16:43:22'
p1647
sg13
I0
sg14
F19.839796781539917
sg15
I407
sbsI409
(icore.engine
StatCollection
p1648
(dp1649
g3
I200
sg4
F10.009927988052368
sg5
F14.265591979026794
sg6
I2
sg7
F28.53118395805359
sg8
F14.265676975250244
sg9
S'OK'
p1650
sg11
S'16:43:22'
p1651
sg13
I0
sg14
F28.53135395050049
sg15
I814
sbsI410
(icore.engine
StatCollection
p1652
(dp1653
g3
I200
sg4
F19.83584713935852
sg5
F19.835779190063477
sg6
I1
sg7
F19.835779190063477
sg8
F19.83584713935852
sg9
S'OK'
p1654
sg11
S'16:43:22'
p1655
sg13
I0
sg14
F19.83584713935852
sg15
I407
sbsI411
(icore.engine
StatCollection
p1656
(dp1657
g3
I200
sg4
F20.5264790058136
sg5
F20.526397943496704
sg6
I1
sg7
F20.526397943496704
sg8
F20.5264790058136
sg9
S'OK'
p1658
sg11
S'16:43:22'
p1659
sg13
I0
sg14
F20.5264790058136
sg15
I407
sbsI412
(icore.engine
StatCollection
p1660
(dp1661
g3
I200
sg4
F19.899437189102173
sg5
F19.899373054504395
sg6
I1
sg7
F19.899373054504395
sg8
F19.899437189102173
sg9
S'OK'
p1662
sg11
S'16:43:22'
p1663
sg13
I0
sg14
F19.899437189102173
sg15
I407
sbsI413
(icore.engine
StatCollection
p1664
(dp1665
g3
I200
sg4
F9.966876029968262
sg5
F14.362605094909668
sg6
I2
sg7
F28.725210189819336
sg8
F14.362678050994873
sg9
S'OK'
p1666
sg11
S'16:43:22'
p1667
sg13
I0
sg14
F28.725356101989746
sg15
I814
sbsI414
(icore.engine
StatCollection
p1668
(dp1669
g3
I200
sg4
F10.107064008712769
sg5
F14.295997977256775
sg6
I2
sg7
F28.59199595451355
sg8
F14.296082973480225
sg9
S'OK'
p1670
sg11
S'16:43:22'
p1671
sg13
I0
sg14
F28.59216594696045
sg15
I814
sbsI415
(icore.engine
StatCollection
p1672
(dp1673
g3
I200
sg4
F12.169418096542358
sg5
F13.865992069244385
sg6
I2
sg7
F27.73198413848877
sg8
F13.866066098213196
sg9
S'OK'
p1674
sg11
S'16:43:22'
p1675
sg13
I0
sg14
F27.73213219642639
sg15
I814
sbsI416
(icore.engine
StatCollection
p1676
(dp1677
g3
I200
sg4
F10.960110187530518
sg5
F13.97828459739685
sg6
I2
sg7
F27.9565691947937
sg8
F13.978352069854736
sg9
S'OK'
p1678
sg11
S'16:43:22'
p1679
sg13
I0
sg14
F27.956704139709473
sg15
I814
sbsI417
(icore.engine
StatCollection
p1680
(dp1681
g3
I200
sg4
F19.887984037399292
sg5
F19.887927055358887
sg6
I1
sg7
F19.887927055358887
sg8
F19.887984037399292
sg9
S'OK'
p1682
sg11
S'16:43:22'
p1683
sg13
I0
sg14
F19.887984037399292
sg15
I407
sbsI418
(icore.engine
StatCollection
p1684
(dp1685
g3
I200
sg4
F9.402215003967285
sg5
F14.075569033622742
sg6
I2
sg7
F28.151138067245483
sg8
F14.075640439987183
sg9
S'OK'
p1686
sg11
S'16:43:22'
p1687
sg13
I0
sg14
F28.151280879974365
sg15
I814
sbsI419
(icore.engine
StatCollection
p1688
(dp1689
g3
I200
sg4
F22.187416076660156
sg5
F22.187308073043823
sg6
I1
sg7
F22.187308073043823
sg8
F22.187416076660156
sg9
S'OK'
p1690
sg11
S'16:43:22'
p1691
sg13
I0
sg14
F22.187416076660156
sg15
I407
sbsI420
(icore.engine
StatCollection
p1692
(dp1693
g3
I200
sg4
F21.685587882995605
sg5
F21.685499906539917
sg6
I1
sg7
F21.685499906539917
sg8
F21.685587882995605
sg9
S'OK'
p1694
sg11
S'16:43:22'
p1695
sg13
I0
sg14
F21.685587882995605
sg15
I407
sbsI421
(icore.engine
StatCollection
p1696
(dp1697
g3
I200
sg4
F11.093519926071167
sg5
F13.097812533378601
sg6
I2
sg7
F26.195625066757202
sg8
F13.097897052764893
sg9
S'OK'
p1698
sg11
S'16:43:22'
p1699
sg13
I0
sg14
F26.195794105529785
sg15
I814
sbsI422
(icore.engine
StatCollection
p1700
(dp1701
g3
I200
sg4
F19.81732487678528
sg5
F19.817254781723022
sg6
I1
sg7
F19.817254781723022
sg8
F19.81732487678528
sg9
S'OK'
p1702
sg11
S'16:43:22'
p1703
sg13
I0
sg14
F19.81732487678528
sg15
I407
sbsI423
(icore.engine
StatCollection
p1704
(dp1705
g3
I200
sg4
F9.274655103683472
sg5
F14.358646988868713
sg6
I2
sg7
F28.717293977737427
sg8
F14.35870349407196
sg9
S'OK'
p1706
sg11
S'16:43:22'
p1707
sg13
I0
sg14
F28.71740698814392
sg15
I814
sbsI424
(icore.engine
StatCollection
p1708
(dp1709
g3
I200
sg4
F19.81920313835144
sg5
F19.819135189056396
sg6
I1
sg7
F19.819135189056396
sg8
F19.81920313835144
sg9
S'OK'
p1710
sg11
S'16:43:22'
p1711
sg13
I0
sg14
F19.81920313835144
sg15
I407
sbsI425
(icore.engine
StatCollection
p1712
(dp1713
g3
I200
sg4
F9.931989908218384
sg5
F14.201388597488403
sg6
I2
sg7
F28.402777194976807
sg8
F14.201455950737
sg9
S'OK'
p1714
sg11
S'16:43:22'
p1715
sg13
I0
sg14
F28.402911901474
sg15
I814
sbsI426
(icore.engine
StatCollection
p1716
(dp1717
g3
I200
sg4
F9.445548057556152
sg5
F14.384881019592285
sg6
I2
sg7
F28.76976203918457
sg8
F14.384930491447449
sg9
S'OK'
p1718
sg11
S'16:43:22'
p1719
sg13
I0
sg14
F28.769860982894897
sg15
I814
sbsI427
(icore.engine
StatCollection
p1720
(dp1721
g3
I200
sg4
F19.875341176986694
sg5
F19.87528109550476
sg6
I1
sg7
F19.87528109550476
sg8
F19.875341176986694
sg9
S'OK'
p1722
sg11
S'16:43:22'
p1723
sg13
I0
sg14
F19.875341176986694
sg15
I407
sbsI428
(icore.engine
StatCollection
p1724
(dp1725
g3
I200
sg4
F20.7558810710907
sg5
F20.755806922912598
sg6
I1
sg7
F20.755806922912598
sg8
F20.7558810710907
sg9
S'OK'
p1726
sg11
S'16:43:22'
p1727
sg13
I0
sg14
F20.7558810710907
sg15
I407
sbsI429
(icore.engine
StatCollection
p1728
(dp1729
g3
I200
sg4
F9.504810094833374
sg5
F13.241249442100525
sg6
I2
sg7
F26.48249888420105
sg8
F13.2413170337677
sg9
S'OK'
p1730
sg11
S'16:43:22'
p1731
sg13
I0
sg14
F26.4826340675354
sg15
I814
sbsI430
(icore.engine
StatCollection
p1732
(dp1733
g3
I200
sg4
F19.85911798477173
sg5
F19.859025955200195
sg6
I1
sg7
F19.859025955200195
sg8
F19.85911798477173
sg9
S'OK'
p1734
sg11
S'16:43:22'
p1735
sg13
I0
sg14
F19.85911798477173
sg15
I407
sbsI431
(icore.engine
StatCollection
p1736
(dp1737
g3
I200
sg4
F19.55679488182068
sg5
F19.556720972061157
sg6
I1
sg7
F19.556720972061157
sg8
F19.55679488182068
sg9
S'OK'
p1738
sg11
S'16:43:22'
p1739
sg13
I0
sg14
F19.55679488182068
sg15
I407
sbsI432
(icore.engine
StatCollection
p1740
(dp1741
g3
I200
sg4
F9.785732984542847
sg5
F14.255502462387085
sg6
I2
sg7
F28.51100492477417
sg8
F14.255559921264648
sg9
S'OK'
p1742
sg11
S'16:43:22'
p1743
sg13
I0
sg14
F28.511119842529297
sg15
I814
sbsI433
(icore.engine
StatCollection
p1744
(dp1745
g3
I200
sg4
F19.80531406402588
sg5
F19.805208921432495
sg6
I1
sg7
F19.805208921432495
sg8
F19.80531406402588
sg9
S'OK'
p1746
sg11
S'16:43:22'
p1747
sg13
I0
sg14
F19.80531406402588
sg15
I407
sbsI434
(icore.engine
StatCollection
p1748
(dp1749
g3
I200
sg4
F19.857492923736572
sg5
F19.85742998123169
sg6
I1
sg7
F19.85742998123169
sg8
F19.857492923736572
sg9
S'OK'
p1750
sg11
S'16:43:22'
p1751
sg13
I0
sg14
F19.857492923736572
sg15
I407
sbsI435
(icore.engine
StatCollection
p1752
(dp1753
g3
I200
sg4
F22.209273099899292
sg5
F22.209206104278564
sg6
I1
sg7
F22.209206104278564
sg8
F22.209273099899292
sg9
S'OK'
p1754
sg11
S'16:43:22'
p1755
sg13
I0
sg14
F22.209273099899292
sg15
I407
sbsI436
(icore.engine
StatCollection
p1756
(dp1757
g3
I200
sg4
F22.187357902526855
sg5
F22.187278985977173
sg6
I1
sg7
F22.187278985977173
sg8
F22.187357902526855
sg9
S'OK'
p1758
sg11
S'16:43:22'
p1759
sg13
I0
sg14
F22.187357902526855
sg15
I407
sbsI437
(icore.engine
StatCollection
p1760
(dp1761
g3
I200
sg4
F21.172765016555786
sg5
F21.172668933868408
sg6
I1
sg7
F21.172668933868408
sg8
F21.172765016555786
sg9
S'OK'
p1762
sg11
S'16:43:22'
p1763
sg13
I0
sg14
F21.172765016555786
sg15
I407
sbsI438
(icore.engine
StatCollection
p1764
(dp1765
g3
I200
sg4
F19.956186056137085
sg5
F19.956106901168823
sg6
I1
sg7
F19.956106901168823
sg8
F19.956186056137085
sg9
S'OK'
p1766
sg11
S'16:43:22'
p1767
sg13
I0
sg14
F19.956186056137085
sg15
I407
sbsI439
(icore.engine
StatCollection
p1768
(dp1769
g3
I200
sg4
F12.277791023254395
sg5
F13.59010648727417
sg6
I2
sg7
F27.18021297454834
sg8
F13.590185523033142
sg9
S'OK'
p1770
sg11
S'16:43:22'
p1771
sg13
I0
sg14
F27.180371046066284
sg15
I814
sbsI440
(icore.engine
StatCollection
p1772
(dp1773
g3
I200
sg4
F19.858689069747925
sg5
F19.85861897468567
sg6
I1
sg7
F19.85861897468567
sg8
F19.858689069747925
sg9
S'OK'
p1774
sg11
S'16:43:22'
p1775
sg13
I0
sg14
F19.858689069747925
sg15
I407
sbsI441
(icore.engine
StatCollection
p1776
(dp1777
g3
I200
sg4
F19.86467981338501
sg5
F19.86459183692932
sg6
I1
sg7
F19.86459183692932
sg8
F19.86467981338501
sg9
S'OK'
p1778
sg11
S'16:43:22'
p1779
sg13
I0
sg14
F19.86467981338501
sg15
I407
sbsI442
(icore.engine
StatCollection
p1780
(dp1781
g3
I200
sg4
F9.275398015975952
sg5
F14.287598490715027
sg6
I2
sg7
F28.575196981430054
sg8
F14.287680506706238
sg9
S'OK'
p1782
sg11
S'16:43:22'
p1783
sg13
I0
sg14
F28.575361013412476
sg15
I814
sbsI443
(icore.engine
StatCollection
p1784
(dp1785
g3
I200
sg4
F10.663002014160156
sg5
F13.759957432746887
sg6
I2
sg7
F27.519914865493774
sg8
F13.760031461715698
sg9
S'OK'
p1786
sg11
S'16:43:22'
p1787
sg13
I0
sg14
F27.520062923431396
sg15
I814
sbsI444
(icore.engine
StatCollection
p1788
(dp1789
g3
I200
sg4
F19.858591079711914
sg5
F19.858511924743652
sg6
I1
sg7
F19.858511924743652
sg8
F19.858591079711914
sg9
S'OK'
p1790
sg11
S'16:43:22'
p1791
sg13
I0
sg14
F19.858591079711914
sg15
I407
sbsI445
(icore.engine
StatCollection
p1792
(dp1793
g3
I200
sg4
F21.65600609779358
sg5
F21.65593695640564
sg6
I1
sg7
F21.65593695640564
sg8
F21.65600609779358
sg9
S'OK'
p1794
sg11
S'16:43:22'
p1795
sg13
I0
sg14
F21.65600609779358
sg15
I407
sbsI446
(icore.engine
StatCollection
p1796
(dp1797
g3
I200
sg4
F19.5399911403656
sg5
F19.539931058883667
sg6
I1
sg7
F19.539931058883667
sg8
F19.5399911403656
sg9
S'OK'
p1798
sg11
S'16:43:22'
p1799
sg13
I0
sg14
F19.5399911403656
sg15
I407
sbsI447
(icore.engine
StatCollection
p1800
(dp1801
g3
I200
sg4
F19.78384780883789
sg5
F19.783758878707886
sg6
I1
sg7
F19.783758878707886
sg8
F19.78384780883789
sg9
S'OK'
p1802
sg11
S'16:43:22'
p1803
sg13
I0
sg14
F19.78384780883789
sg15
I407
sbsI448
(icore.engine
StatCollection
p1804
(dp1805
g3
I200
sg4
F20.97729206085205
sg5
F20.97717308998108
sg6
I1
sg7
F20.97717308998108
sg8
F20.97729206085205
sg9
S'OK'
p1806
sg11
S'16:43:22'
p1807
sg13
I0
sg14
F20.97729206085205
sg15
I407
sbsI449
(icore.engine
StatCollection
p1808
(dp1809
g3
I200
sg4
F20.394807815551758
sg5
F20.394730806350708
sg6
I1
sg7
F20.394730806350708
sg8
F20.394807815551758
sg9
S'OK'
p1810
sg11
S'16:43:22'
p1811
sg13
I0
sg14
F20.394807815551758
sg15
I407
sbsI450
(icore.engine
StatCollection
p1812
(dp1813
g3
I200
sg4
F12.101883888244629
sg5
F13.881411075592041
sg6
I2
sg7
F27.762822151184082
sg8
F13.881481528282166
sg9
S'OK'
p1814
sg11
S'16:43:22'
p1815
sg13
I0
sg14
F27.76296305656433
sg15
I814
sbsI451
(icore.engine
StatCollection
p1816
(dp1817
g3
I200
sg4
F19.85299801826477
sg5
F19.852920055389404
sg6
I1
sg7
F19.852920055389404
sg8
F19.85299801826477
sg9
S'OK'
p1818
sg11
S'16:43:22'
p1819
sg13
I0
sg14
F19.85299801826477
sg15
I407
sbsI452
(icore.engine
StatCollection
p1820
(dp1821
g3
I200
sg4
F19.847958087921143
sg5
F19.847894191741943
sg6
I1
sg7
F19.847894191741943
sg8
F19.847958087921143
sg9
S'OK'
p1822
sg11
S'16:43:22'
p1823
sg13
I0
sg14
F19.847958087921143
sg15
I407
sbsI453
(icore.engine
StatCollection
p1824
(dp1825
g3
I200
sg4
F22.143187999725342
sg5
F22.143099784851074
sg6
I1
sg7
F22.143099784851074
sg8
F22.143187999725342
sg9
S'OK'
p1826
sg11
S'16:43:22'
p1827
sg13
I0
sg14
F22.143187999725342
sg15
I407
sbsI454
(icore.engine
StatCollection
p1828
(dp1829
g3
I200
sg4
F20.618261098861694
sg5
F20.618190050125122
sg6
I1
sg7
F20.618190050125122
sg8
F20.618261098861694
sg9
S'OK'
p1830
sg11
S'16:43:22'
p1831
sg13
I0
sg14
F20.618261098861694
sg15
I407
sbsI455
(icore.engine
StatCollection
p1832
(dp1833
g3
I200
sg4
F10.000720977783203
sg5
F14.349995970726013
sg6
I2
sg7
F28.699991941452026
sg8
F14.350072503089905
sg9
S'OK'
p1834
sg11
S'16:43:22'
p1835
sg13
I0
sg14
F28.70014500617981
sg15
I814
sbsI456
(icore.engine
StatCollection
p1836
(dp1837
g3
I200
sg4
F9.447128057479858
sg5
F14.176320552825928
sg6
I2
sg7
F28.352641105651855
sg8
F14.1764155626297
sg9
S'OK'
p1838
sg11
S'16:43:22'
p1839
sg13
I0
sg14
F28.3528311252594
sg15
I814
sbsI457
(icore.engine
StatCollection
p1840
(dp1841
g3
I200
sg4
F19.837964057922363
sg5
F19.833386182785034
sg6
I1
sg7
F19.833386182785034
sg8
F19.837964057922363
sg9
S'OK'
p1842
sg11
S'16:43:22'
p1843
sg13
I0
sg14
F19.837964057922363
sg15
I407
sbsI458
(icore.engine
StatCollection
p1844
(dp1845
g3
I200
sg4
F21.18746590614319
sg5
F21.187405824661255
sg6
I1
sg7
F21.187405824661255
sg8
F21.18746590614319
sg9
S'OK'
p1846
sg11
S'16:43:22'
p1847
sg13
I0
sg14
F21.18746590614319
sg15
I407
sbsI459
(icore.engine
StatCollection
p1848
(dp1849
g3
I200
sg4
F9.936135053634644
sg5
F14.211061477661133
sg6
I2
sg7
F28.422122955322266
sg8
F14.211136937141418
sg9
S'OK'
p1850
sg11
S'16:43:22'
p1851
sg13
I0
sg14
F28.422273874282837
sg15
I814
sbsI460
(icore.engine
StatCollection
p1852
(dp1853
g3
I200
sg4
F12.11058497428894
sg5
F13.52254593372345
sg6
I2
sg7
F27.0450918674469
sg8
F13.52261996269226
sg9
S'OK'
p1854
sg11
S'16:43:22'
p1855
sg13
I0
sg14
F27.04523992538452
sg15
I814
sbsI461
(icore.engine
StatCollection
p1856
(dp1857
g3
I200
sg4
F19.584332942962646
sg5
F19.584279775619507
sg6
I1
sg7
F19.584279775619507
sg8
F19.584332942962646
sg9
S'OK'
p1858
sg11
S'16:43:22'
p1859
sg13
I0
sg14
F19.584332942962646
sg15
I407
sbsI462
(icore.engine
StatCollection
p1860
(dp1861
g3
I200
sg4
F8.953205823898315
sg5
F14.169702053070068
sg6
I2
sg7
F28.339404106140137
sg8
F14.169780015945435
sg9
S'OK'
p1862
sg11
S'16:43:22'
p1863
sg13
I0
sg14
F28.33956003189087
sg15
I814
sbsI463
(icore.engine
StatCollection
p1864
(dp1865
g3
I200
sg4
F9.25773000717163
sg5
F14.323742151260376
sg6
I2
sg7
F28.647484302520752
sg8
F14.323810458183289
sg9
S'OK'
p1866
sg11
S'16:43:22'
p1867
sg13
I0
sg14
F28.647620916366577
sg15
I814
sbsI464
(icore.engine
StatCollection
p1868
(dp1869
g3
I200
sg4
F20.47651982307434
sg5
F20.47646689414978
sg6
I1
sg7
F20.47646689414978
sg8
F20.47651982307434
sg9
S'OK'
p1870
sg11
S'16:43:22'
p1871
sg13
I0
sg14
F20.47651982307434
sg15
I407
sbsI465
(icore.engine
StatCollection
p1872
(dp1873
g3
I200
sg4
F19.83464002609253
sg5
F19.834563970565796
sg6
I1
sg7
F19.834563970565796
sg8
F19.83464002609253
sg9
S'OK'
p1874
sg11
S'16:43:22'
p1875
sg13
I0
sg14
F19.83464002609253
sg15
I407
sbsI466
(icore.engine
StatCollection
p1876
(dp1877
g3
I200
sg4
F8.86939001083374
sg5
F14.128123879432678
sg6
I2
sg7
F28.256247758865356
sg8
F14.12821352481842
sg9
S'OK'
p1878
sg11
S'16:43:22'
p1879
sg13
I0
sg14
F28.25642704963684
sg15
I814
sbsI467
(icore.engine
StatCollection
p1880
(dp1881
g3
I200
sg4
F19.510726928710938
sg5
F19.510658025741577
sg6
I1
sg7
F19.510658025741577
sg8
F19.510726928710938
sg9
S'OK'
p1882
sg11
S'16:43:22'
p1883
sg13
I0
sg14
F19.510726928710938
sg15
I407
sbsI468
(icore.engine
StatCollection
p1884
(dp1885
g3
I200
sg4
F21.626731872558594
sg5
F21.626683950424194
sg6
I1
sg7
F21.626683950424194
sg8
F21.626731872558594
sg9
S'OK'
p1886
sg11
S'16:43:22'
p1887
sg13
I0
sg14
F21.626731872558594
sg15
I407
sbsI469
(icore.engine
StatCollection
p1888
(dp1889
g3
I200
sg4
F21.1554958820343
sg5
F21.15544891357422
sg6
I1
sg7
F21.15544891357422
sg8
F21.1554958820343
sg9
S'OK'
p1890
sg11
S'16:43:22'
p1891
sg13
I0
sg14
F21.1554958820343
sg15
I407
sbsI470
(icore.engine
StatCollection
p1892
(dp1893
g3
I200
sg4
F20.159852981567383
sg5
F20.159780979156494
sg6
I1
sg7
F20.159780979156494
sg8
F20.159852981567383
sg9
S'OK'
p1894
sg11
S'16:43:22'
p1895
sg13
I0
sg14
F20.159852981567383
sg15
I407
sbsI471
(icore.engine
StatCollection
p1896
(dp1897
g3
I200
sg4
F19.80889105796814
sg5
F19.80881905555725
sg6
I1
sg7
F19.80881905555725
sg8
F19.80889105796814
sg9
S'OK'
p1898
sg11
S'16:43:22'
p1899
sg13
I0
sg14
F19.80889105796814
sg15
I407
sbsI472
(icore.engine
StatCollection
p1900
(dp1901
g3
I200
sg4
F19.80019497871399
sg5
F19.800143003463745
sg6
I1
sg7
F19.800143003463745
sg8
F19.80019497871399
sg9
S'OK'
p1902
sg11
S'16:43:22'
p1903
sg13
I0
sg14
F19.80019497871399
sg15
I407
sbsI473
(icore.engine
StatCollection
p1904
(dp1905
g3
I200
sg4
F19.449244022369385
sg5
F19.44911003112793
sg6
I1
sg7
F19.44911003112793
sg8
F19.449244022369385
sg9
S'OK'
p1906
sg11
S'16:43:22'
p1907
sg13
I0
sg14
F19.449244022369385
sg15
I407
sbsI474
(icore.engine
StatCollection
p1908
(dp1909
g3
I200
sg4
F9.836859941482544
sg5
F14.256758451461792
sg6
I2
sg7
F28.513516902923584
sg8
F14.256834983825684
sg9
S'OK'
p1910
sg11
S'16:43:22'
p1911
sg13
I0
sg14
F28.513669967651367
sg15
I814
sbsI475
(icore.engine
StatCollection
p1912
(dp1913
g3
I200
sg4
F19.824458122253418
sg5
F19.824383974075317
sg6
I1
sg7
F19.824383974075317
sg8
F19.824458122253418
sg9
S'OK'
p1914
sg11
S'16:43:22'
p1915
sg13
I0
sg14
F19.824458122253418
sg15
I407
sbsI476
(icore.engine
StatCollection
p1916
(dp1917
g3
I200
sg4
F21.615252017974854
sg5
F21.61517095565796
sg6
I1
sg7
F21.61517095565796
sg8
F21.615252017974854
sg9
S'OK'
p1918
sg11
S'16:43:22'
p1919
sg13
I0
sg14
F21.615252017974854
sg15
I407
sbsI477
(icore.engine
StatCollection
p1920
(dp1921
g3
I200
sg4
F9.790282964706421
sg5
F14.239955067634583
sg6
I2
sg7
F28.479910135269165
sg8
F14.240037560462952
sg9
S'OK'
p1922
sg11
S'16:43:22'
p1923
sg13
I0
sg14
F28.480075120925903
sg15
I814
sbsI478
(icore.engine
StatCollection
p1924
(dp1925
g3
I200
sg4
F20.44623899459839
sg5
F20.446154832839966
sg6
I1
sg7
F20.446154832839966
sg8
F20.44623899459839
sg9
S'OK'
p1926
sg11
S'16:43:22'
p1927
sg13
I0
sg14
F20.44623899459839
sg15
I407
sbsI479
(icore.engine
StatCollection
p1928
(dp1929
g3
I200
sg4
F9.234035015106201
sg5
F13.843886017799377
sg6
I2
sg7
F27.687772035598755
sg8
F13.843957424163818
sg9
S'OK'
p1930
sg11
S'16:43:22'
p1931
sg13
I0
sg14
F27.687914848327637
sg15
I814
sbsI480
(icore.engine
StatCollection
p1932
(dp1933
g3
I200
sg4
F21.116281986236572
sg5
F21.1161949634552
sg6
I1
sg7
F21.1161949634552
sg8
F21.116281986236572
sg9
S'OK'
p1934
sg11
S'16:43:22'
p1935
sg13
I0
sg14
F21.116281986236572
sg15
I407
sbsI481
(icore.engine
StatCollection
p1936
(dp1937
g3
I200
sg4
F9.303958892822266
sg5
F14.334036469459534
sg6
I2
sg7
F28.668072938919067
sg8
F14.334105014801025
sg9
S'OK'
p1938
sg11
S'16:43:22'
p1939
sg13
I0
sg14
F28.66821002960205
sg15
I814
sbsI482
(icore.engine
StatCollection
p1940
(dp1941
g3
I200
sg4
F19.969760179519653
sg5
F19.969675064086914
sg6
I1
sg7
F19.969675064086914
sg8
F19.969760179519653
sg9
S'OK'
p1942
sg11
S'16:43:22'
p1943
sg13
I0
sg14
F19.969760179519653
sg15
I407
sbsI483
(icore.engine
StatCollection
p1944
(dp1945
g3
I200
sg4
F21.601786851882935
sg5
F21.601719856262207
sg6
I1
sg7
F21.601719856262207
sg8
F21.601786851882935
sg9
S'OK'
p1946
sg11
S'16:43:22'
p1947
sg13
I0
sg14
F21.601786851882935
sg15
I407
sbsI484
(icore.engine
StatCollection
p1948
(dp1949
g3
I200
sg4
F9.571774959564209
sg5
F14.15282940864563
sg6
I2
sg7
F28.30565881729126
sg8
F14.152925491333008
sg9
S'OK'
p1950
sg11
S'16:43:22'
p1951
sg13
I0
sg14
F28.305850982666016
sg15
I814
sbsI485
(icore.engine
StatCollection
p1952
(dp1953
g3
I200
sg4
F20.847246885299683
sg5
F20.84715509414673
sg6
I1
sg7
F20.84715509414673
sg8
F20.847246885299683
sg9
S'OK'
p1954
sg11
S'16:43:22'
p1955
sg13
I0
sg14
F20.847246885299683
sg15
I407
sbsI486
(icore.engine
StatCollection
p1956
(dp1957
g3
I200
sg4
F19.484887838363647
sg5
F19.484817028045654
sg6
I1
sg7
F19.484817028045654
sg8
F19.484887838363647
sg9
S'OK'
p1958
sg11
S'16:43:22'
p1959
sg13
I0
sg14
F19.484887838363647
sg15
I407
sbsI487
(icore.engine
StatCollection
p1960
(dp1961
g3
I200
sg4
F19.77582597732544
sg5
F19.77572798728943
sg6
I1
sg7
F19.77572798728943
sg8
F19.77582597732544
sg9
S'OK'
p1962
sg11
S'16:43:22'
p1963
sg13
I0
sg14
F19.77582597732544
sg15
I407
sbsI488
(icore.engine
StatCollection
p1964
(dp1965
g3
I200
sg4
F19.797338008880615
sg5
F19.797260999679565
sg6
I1
sg7
F19.797260999679565
sg8
F19.797338008880615
sg9
S'OK'
p1966
sg11
S'16:43:22'
p1967
sg13
I0
sg14
F19.797338008880615
sg15
I407
sbsI489
(icore.engine
StatCollection
p1968
(dp1969
g3
I200
sg4
F19.79824185371399
sg5
F19.798176050186157
sg6
I1
sg7
F19.798176050186157
sg8
F19.79824185371399
sg9
S'OK'
p1970
sg11
S'16:43:22'
p1971
sg13
I0
sg14
F19.79824185371399
sg15
I407
sbsI490
(icore.engine
StatCollection
p1972
(dp1973
g3
I200
sg4
F19.79327416419983
sg5
F19.79319405555725
sg6
I1
sg7
F19.79319405555725
sg8
F19.79327416419983
sg9
S'OK'
p1974
sg11
S'16:43:22'
p1975
sg13
I0
sg14
F19.79327416419983
sg15
I407
sbsI491
(icore.engine
StatCollection
p1976
(dp1977
g3
I200
sg4
F21.994685888290405
sg5
F21.994603872299194
sg6
I1
sg7
F21.994603872299194
sg8
F21.994685888290405
sg9
S'OK'
p1978
sg11
S'16:43:22'
p1979
sg13
I0
sg14
F21.994685888290405
sg15
I407
sbsI492
(icore.engine
StatCollection
p1980
(dp1981
g3
I200
sg4
F19.478648900985718
sg5
F19.47856903076172
sg6
I1
sg7
F19.47856903076172
sg8
F19.478648900985718
sg9
S'OK'
p1982
sg11
S'16:43:22'
p1983
sg13
I0
sg14
F19.478648900985718
sg15
I407
sbsI493
(icore.engine
StatCollection
p1984
(dp1985
g3
I200
sg4
F8.847203969955444
sg5
F14.097122073173523
sg6
I2
sg7
F28.194244146347046
sg8
F14.097192525863647
sg9
S'OK'
p1986
sg11
S'16:43:22'
p1987
sg13
I0
sg14
F28.194385051727295
sg15
I814
sbsI494
(icore.engine
StatCollection
p1988
(dp1989
g3
I200
sg4
F20.396605014801025
sg5
F20.396533012390137
sg6
I1
sg7
F20.396533012390137
sg8
F20.396605014801025
sg9
S'OK'
p1990
sg11
S'16:43:22'
p1991
sg13
I0
sg14
F20.396605014801025
sg15
I407
sbsI495
(icore.engine
StatCollection
p1992
(dp1993
g3
I200
sg4
F9.87082815170288
sg5
F14.122929573059082
sg6
I2
sg7
F28.245859146118164
sg8
F14.123012661933899
sg9
S'OK'
p1994
sg11
S'16:43:22'
p1995
sg13
I0
sg14
F28.246025323867798
sg15
I814
sbsI496
(icore.engine
StatCollection
p1996
(dp1997
g3
I200
sg4
F20.91030502319336
sg5
F20.91022801399231
sg6
I1
sg7
F20.91022801399231
sg8
F20.91030502319336
sg9
S'OK'
p1998
sg11
S'16:43:22'
p1999
sg13
I0
sg14
F20.91030502319336
sg15
I407
sbsI497
(icore.engine
StatCollection
p2000
(dp2001
g3
I200
sg4
F20.55823302268982
sg5
F20.55817198753357
sg6
I1
sg7
F20.55817198753357
sg8
F20.55823302268982
sg9
S'OK'
p2002
sg11
S'16:43:22'
p2003
sg13
I0
sg14
F20.55823302268982
sg15
I407
sbsI498
(icore.engine
StatCollection
p2004
(dp2005
g3
I200
sg4
F19.46478509902954
sg5
F19.46471405029297
sg6
I1
sg7
F19.46471405029297
sg8
F19.46478509902954
sg9
S'OK'
p2006
sg11
S'16:43:22'
p2007
sg13
I0
sg14
F19.46478509902954
sg15
I407
sbsI499
(icore.engine
StatCollection
p2008
(dp2009
g3
I200
sg4
F19.7737398147583
sg5
F19.773664951324463
sg6
I1
sg7
F19.773664951324463
sg8
F19.7737398147583
sg9
S'OK'
p2010
sg11
S'16:43:22'
p2011
sg13
I0
sg14
F19.7737398147583
sg15
I407
sbs.