(dp0
I0
(icore.engine
StatCollection
p1
(dp2
S'status'
p3
I200
sS'latency'
p4
F14.152158975601196
sS'avg_connect_latency'
p5
F12.855819463729858
sS'count'
p6
I2
sS'total_connect_latency'
p7
F25.711638927459717
sS'avg_latency'
p8
F12.855916500091553
sS'reason'
p9
S'OK'
p10
sS'agent_start_time'
p11
S'16:37:10'
p12
sS'error_count'
p13
I0
sS'total_latency'
p14
F25.711833000183105
sS'total_bytes'
p15
I814
sbsI1
(icore.engine
StatCollection
p16
(dp17
g3
I200
sg4
F14.933797836303711
sg5
F12.496173024177551
sg6
I2
sg7
F24.992346048355103
sg8
F12.496263980865479
sg9
S'OK'
p18
sg11
S'16:37:10'
p19
sg13
I0
sg14
F24.992527961730957
sg15
I814
sbsI2
(icore.engine
StatCollection
p20
(dp21
g3
I200
sg4
F14.074892044067383
sg5
F14.680657505989075
sg6
I2
sg7
F29.36131501197815
sg8
F14.680752038955688
sg9
S'OK'
p22
sg11
S'16:37:10'
p23
sg13
I0
sg14
F29.361504077911377
sg15
I814
sbsI3
(icore.engine
StatCollection
p24
(dp25
g3
I200
sg4
F13.73547911643982
sg5
F16.721964597702026
sg6
I2
sg7
F33.44392919540405
sg8
F16.72203767299652
sg9
S'OK'
p26
sg11
S'16:37:11'
p27
sg13
I0
sg14
F33.44407534599304
sg15
I814
sbsI4
(icore.engine
StatCollection
p28
(dp29
g3
I200
sg4
F11.54928708076477
sg5
F12.043750524520874
sg6
I2
sg7
F24.087501049041748
sg8
F12.04387354850769
sg9
S'OK'
p30
sg11
S'16:37:11'
p31
sg13
I0
sg14
F24.08774709701538
sg15
I814
sbsI5
(icore.engine
StatCollection
p32
(dp33
g3
I200
sg4
F14.340996026992798
sg5
F14.481428027153015
sg6
I2
sg7
F28.96285605430603
sg8
F14.481545448303223
sg9
S'OK'
p34
sg11
S'16:37:11'
p35
sg13
I0
sg14
F28.963090896606445
sg15
I814
sbsI6
(icore.engine
StatCollection
p36
(dp37
g3
I200
sg4
F11.96553897857666
sg5
F12.747885584831238
sg6
I2
sg7
F25.495771169662476
sg8
F12.747989535331726
sg9
S'OK'
p38
sg11
S'16:37:11'
p39
sg13
I0
sg14
F25.495979070663452
sg15
I814
sbsI7
(icore.engine
StatCollection
p40
(dp41
g3
I200
sg4
F15.294631958007812
sg5
F16.701138973236084
sg6
I2
sg7
F33.40227794647217
sg8
F16.70122539997101
sg9
S'OK'
p42
sg11
S'16:37:11'
p43
sg13
I0
sg14
F33.40245079994202
sg15
I814
sbsI8
(icore.engine
StatCollection
p44
(dp45
g3
I200
sg4
F15.326364994049072
sg5
F14.808487057685852
sg6
I2
sg7
F29.616974115371704
sg8
F14.80857002735138
sg9
S'OK'
p46
sg11
S'16:37:11'
p47
sg13
I0
sg14
F29.61714005470276
sg15
I814
sbsI9
(icore.engine
StatCollection
p48
(dp49
g3
I200
sg4
F10.805667877197266
sg5
F11.186213493347168
sg6
I2
sg7
F22.372426986694336
sg8
F11.18633246421814
sg9
S'OK'
p50
sg11
S'16:37:11'
p51
sg13
I0
sg14
F22.37266492843628
sg15
I814
sbsI10
(icore.engine
StatCollection
p52
(dp53
g3
I200
sg4
F12.394102096557617
sg5
F13.19207751750946
sg6
I2
sg7
F26.38415503501892
sg8
F13.192155480384827
sg9
S'OK'
p54
sg11
S'16:37:11'
p55
sg13
I0
sg14
F26.384310960769653
sg15
I814
sbsI11
(icore.engine
StatCollection
p56
(dp57
g3
I200
sg4
F14.071090936660767
sg5
F14.93688440322876
sg6
I2
sg7
F29.87376880645752
sg8
F14.936978936195374
sg9
S'OK'
p58
sg11
S'16:37:11'
p59
sg13
I0
sg14
F29.873957872390747
sg15
I814
sbsI12
(icore.engine
StatCollection
p60
(dp61
g3
I200
sg4
F12.20643401145935
sg5
F13.0928875207901
sg6
I2
sg7
F26.1857750415802
sg8
F13.093019008636475
sg9
S'OK'
p62
sg11
S'16:37:11'
p63
sg13
I0
sg14
F26.18603801727295
sg15
I814
sbsI13
(icore.engine
StatCollection
p64
(dp65
g3
I200
sg4
F11.85140085220337
sg5
F12.398324847221375
sg6
I2
sg7
F24.79664969444275
sg8
F12.398423433303833
sg9
S'OK'
p66
sg11
S'16:37:11'
p67
sg13
I0
sg14
F24.796846866607666
sg15
I814
sbsI14
(icore.engine
StatCollection
p68
(dp69
g3
I200
sg4
F14.610460996627808
sg5
F15.981745481491089
sg6
I2
sg7
F31.963490962982178
sg8
F15.981809496879578
sg9
S'OK'
p70
sg11
S'16:37:11'
p71
sg13
I0
sg14
F31.963618993759155
sg15
I814
sbsI15
(icore.engine
StatCollection
p72
(dp73
g3
I200
sg4
F13.507657051086426
sg5
F11.850903987884521
sg6
I2
sg7
F23.701807975769043
sg8
F11.851025938987732
sg9
S'OK'
p74
sg11
S'16:37:11'
p75
sg13
I0
sg14
F23.702051877975464
sg15
I814
sbsI16
(icore.engine
StatCollection
p76
(dp77
g3
I200
sg4
F13.579535961151123
sg5
F16.357271552085876
sg6
I2
sg7
F32.71454310417175
sg8
F16.357337951660156
sg9
S'OK'
p78
sg11
S'16:37:11'
p79
sg13
I0
sg14
F32.71467590332031
sg15
I814
sbsI17
(icore.engine
StatCollection
p80
(dp81
g3
I200
sg4
F13.752372980117798
sg5
F16.129166960716248
sg6
I2
sg7
F32.258333921432495
sg8
F16.129263520240784
sg9
S'OK'
p82
sg11
S'16:37:11'
p83
sg13
I0
sg14
F32.25852704048157
sg15
I814
sbsI18
(icore.engine
StatCollection
p84
(dp85
g3
I200
sg4
F13.663330078125
sg5
F14.463783979415894
sg6
I2
sg7
F28.927567958831787
sg8
F14.463845610618591
sg9
S'OK'
p86
sg11
S'16:37:11'
p87
sg13
I0
sg14
F28.927691221237183
sg15
I814
sbsI19
(icore.engine
StatCollection
p88
(dp89
g3
I200
sg4
F13.59785008430481
sg5
F12.316302061080933
sg6
I2
sg7
F24.632604122161865
sg8
F12.316424012184143
sg9
S'OK'
p90
sg11
S'16:37:11'
p91
sg13
I0
sg14
F24.632848024368286
sg15
I814
sbsI20
(icore.engine
StatCollection
p92
(dp93
g3
I200
sg4
F14.351433992385864
sg5
F16.6264306306839
sg6
I2
sg7
F33.2528612613678
sg8
F16.626530528068542
sg9
S'OK'
p94
sg11
S'16:37:11'
p95
sg13
I0
sg14
F33.253061056137085
sg15
I814
sbsI21
(icore.engine
StatCollection
p96
(dp97
g3
I200
sg4
F10.830338954925537
sg5
F12.280064463615417
sg6
I2
sg7
F24.560128927230835
sg8
F12.28014051914215
sg9
S'OK'
p98
sg11
S'16:37:11'
p99
sg13
I0
sg14
F24.5602810382843
sg15
I814
sbsI22
(icore.engine
StatCollection
p100
(dp101
g3
I200
sg4
F14.56535005569458
sg5
F14.705063462257385
sg6
I2
sg7
F29.41012692451477
sg8
F14.70513904094696
sg9
S'OK'
p102
sg11
S'16:37:11'
p103
sg13
I0
sg14
F29.41027808189392
sg15
I814
sbsI23
(icore.engine
StatCollection
p104
(dp105
g3
I200
sg4
F15.490634202957153
sg5
F15.558093070983887
sg6
I2
sg7
F31.116186141967773
sg8
F15.558234095573425
sg9
S'OK'
p106
sg11
S'16:37:11'
p107
sg13
I0
sg14
F31.11646819114685
sg15
I814
sbsI24
(icore.engine
StatCollection
p108
(dp109
g3
I200
sg4
F16.3929660320282
sg5
F15.43749713897705
sg6
I2
sg7
F30.8749942779541
sg8
F15.43755853176117
sg9
S'OK'
p110
sg11
S'16:37:11'
p111
sg13
I0
sg14
F30.87511706352234
sg15
I814
sbsI25
(icore.engine
StatCollection
p112
(dp113
g3
I200
sg4
F16.08916401863098
sg5
F16.88659906387329
sg6
I2
sg7
F33.77319812774658
sg8
F16.88668155670166
sg9
S'OK'
p114
sg11
S'16:37:11'
p115
sg13
I0
sg14
F33.77336311340332
sg15
I814
sbsI26
(icore.engine
StatCollection
p116
(dp117
g3
I200
sg4
F14.679346799850464
sg5
F15.65507698059082
sg6
I2
sg7
F31.31015396118164
sg8
F15.655151844024658
sg9
S'OK'
p118
sg11
S'16:37:11'
p119
sg13
I0
sg14
F31.310303688049316
sg15
I814
sbsI27
(icore.engine
StatCollection
p120
(dp121
g3
I200
sg4
F14.639775037765503
sg5
F16.75093710422516
sg6
I2
sg7
F33.50187420845032
sg8
F16.7509925365448
sg9
S'OK'
p122
sg11
S'16:37:11'
p123
sg13
I0
sg14
F33.5019850730896
sg15
I814
sbsI28
(icore.engine
StatCollection
p124
(dp125
g3
I200
sg4
F14.286954164505005
sg5
F17.025323033332825
sg6
I2
sg7
F34.05064606666565
sg8
F17.02540409564972
sg9
S'OK'
p126
sg11
S'16:37:11'
p127
sg13
I0
sg14
F34.05080819129944
sg15
I814
sbsI29
(icore.engine
StatCollection
p128
(dp129
g3
I200
sg4
F13.990736961364746
sg5
F14.293944954872131
sg6
I2
sg7
F28.587889909744263
sg8
F14.294054985046387
sg9
S'OK'
p130
sg11
S'16:37:11'
p131
sg13
I0
sg14
F28.588109970092773
sg15
I814
sbsI30
(icore.engine
StatCollection
p132
(dp133
g3
I200
sg4
F13.702315092086792
sg5
F12.489595651626587
sg6
I2
sg7
F24.979191303253174
sg8
F12.489664554595947
sg9
S'OK'
p134
sg11
S'16:37:11'
p135
sg13
I0
sg14
F24.979329109191895
sg15
I814
sbsI31
(icore.engine
StatCollection
p136
(dp137
g3
I200
sg4
F12.125180006027222
sg5
F13.818419575691223
sg6
I2
sg7
F27.636839151382446
sg8
F13.818485975265503
sg9
S'OK'
p138
sg11
S'16:37:11'
p139
sg13
I0
sg14
F27.636971950531006
sg15
I814
sbsI32
(icore.engine
StatCollection
p140
(dp141
g3
I200
sg4
F12.615226984024048
sg5
F14.58221447467804
sg6
I2
sg7
F29.16442894935608
sg8
F14.58230197429657
sg9
S'OK'
p142
sg11
S'16:37:11'
p143
sg13
I0
sg14
F29.16460394859314
sg15
I814
sbsI33
(icore.engine
StatCollection
p144
(dp145
g3
I200
sg4
F13.779769897460938
sg5
F16.307806968688965
sg6
I2
sg7
F32.61561393737793
sg8
F16.30789089202881
sg9
S'OK'
p146
sg11
S'16:37:11'
p147
sg13
I0
sg14
F32.61578178405762
sg15
I814
sbsI34
(icore.engine
StatCollection
p148
(dp149
g3
I200
sg4
F14.117954015731812
sg5
F13.129379391670227
sg6
I2
sg7
F26.258758783340454
sg8
F13.129456043243408
sg9
S'OK'
p150
sg11
S'16:37:11'
p151
sg13
I0
sg14
F26.258912086486816
sg15
I814
sbsI35
(icore.engine
StatCollection
p152
(dp153
g3
I200
sg4
F12.382503986358643
sg5
F13.714285016059875
sg6
I2
sg7
F27.42857003211975
sg8
F13.714378952980042
sg9
S'OK'
p154
sg11
S'16:37:11'
p155
sg13
I0
sg14
F27.428757905960083
sg15
I814
sbsI36
(icore.engine
StatCollection
p156
(dp157
g3
I200
sg4
F15.50246000289917
sg5
F14.574535012245178
sg6
I2
sg7
F29.149070024490356
sg8
F14.574643015861511
sg9
S'OK'
p158
sg11
S'16:37:11'
p159
sg13
I0
sg14
F29.149286031723022
sg15
I814
sbsI37
(icore.engine
StatCollection
p160
(dp161
g3
I200
sg4
F13.435817956924438
sg5
F16.13164460659027
sg6
I2
sg7
F32.26328921318054
sg8
F16.131749510765076
sg9
S'OK'
p162
sg11
S'16:37:11'
p163
sg13
I0
sg14
F32.26349902153015
sg15
I814
sbsI38
(icore.engine
StatCollection
p164
(dp165
g3
I200
sg4
F13.589627981185913
sg5
F16.2056086063385
sg6
I2
sg7
F32.411217212677
sg8
F16.205676555633545
sg9
S'OK'
p166
sg11
S'16:37:11'
p167
sg13
I0
sg14
F32.41135311126709
sg15
I814
sbsI39
(icore.engine
StatCollection
p168
(dp169
g3
I200
sg4
F14.078610897064209
sg5
F14.675102353096008
sg6
I2
sg7
F29.350204706192017
sg8
F14.67523741722107
sg9
S'OK'
p170
sg11
S'16:37:11'
p171
sg13
I0
sg14
F29.35047483444214
sg15
I814
sbsI40
(icore.engine
StatCollection
p172
(dp173
g3
I200
sg4
F15.199835062026978
sg5
F16.019439935684204
sg6
I2
sg7
F32.03887987136841
sg8
F16.019508004188538
sg9
S'OK'
p174
sg11
S'16:37:11'
p175
sg13
I0
sg14
F32.039016008377075
sg15
I814
sbsI41
(icore.engine
StatCollection
p176
(dp177
g3
I200
sg4
F12.128818035125732
sg5
F14.785316944122314
sg6
I2
sg7
F29.57063388824463
sg8
F14.785383939743042
sg9
S'OK'
p178
sg11
S'16:37:11'
p179
sg13
I0
sg14
F29.570767879486084
sg15
I814
sbsI42
(icore.engine
StatCollection
p180
(dp181
g3
I200
sg4
F13.052778959274292
sg5
F16.083181500434875
sg6
I2
sg7
F32.16636300086975
sg8
F16.0832599401474
sg9
S'OK'
p182
sg11
S'16:37:11'
p183
sg13
I0
sg14
F32.1665198802948
sg15
I814
sbsI43
(icore.engine
StatCollection
p184
(dp185
g3
I200
sg4
F12.9217848777771
sg5
F14.264151453971863
sg6
I2
sg7
F28.528302907943726
sg8
F14.264276385307312
sg9
S'OK'
p186
sg11
S'16:37:11'
p187
sg13
I0
sg14
F28.528552770614624
sg15
I814
sbsI44
(icore.engine
StatCollection
p188
(dp189
g3
I200
sg4
F10.98517894744873
sg5
F13.894030451774597
sg6
I2
sg7
F27.788060903549194
sg8
F13.894145488739014
sg9
S'OK'
p190
sg11
S'16:37:11'
p191
sg13
I0
sg14
F27.788290977478027
sg15
I814
sbsI45
(icore.engine
StatCollection
p192
(dp193
g3
I200
sg4
F11.863147974014282
sg5
F12.46579098701477
sg6
I2
sg7
F24.93158197402954
sg8
F12.4659104347229
sg9
S'OK'
p194
sg11
S'16:37:11'
p195
sg13
I0
sg14
F24.9318208694458
sg15
I814
sbsI46
(icore.engine
StatCollection
p196
(dp197
g3
I200
sg4
F14.040951013565063
sg5
F16.447102069854736
sg6
I2
sg7
F32.89420413970947
sg8
F16.447188019752502
sg9
S'OK'
p198
sg11
S'16:37:11'
p199
sg13
I0
sg14
F32.894376039505005
sg15
I814
sbsI47
(icore.engine
StatCollection
p200
(dp201
g3
I200
sg4
F9.56047797203064
sg5
F12.25969398021698
sg6
I2
sg7
F24.51938796043396
sg8
F12.259816527366638
sg9
S'OK'
p202
sg11
S'16:37:11'
p203
sg13
I0
sg14
F24.519633054733276
sg15
I814
sbsI48
(icore.engine
StatCollection
p204
(dp205
g3
I200
sg4
F14.313102960586548
sg5
F16.979517579078674
sg6
I2
sg7
F33.95903515815735
sg8
F16.979591965675354
sg9
S'OK'
p206
sg11
S'16:37:11'
p207
sg13
I0
sg14
F33.95918393135071
sg15
I814
sbsI49
(icore.engine
StatCollection
p208
(dp209
g3
I200
sg4
F14.548882961273193
sg5
F16.687235474586487
sg6
I2
sg7
F33.374470949172974
sg8
F16.687325954437256
sg9
S'OK'
p210
sg11
S'16:37:11'
p211
sg13
I0
sg14
F33.37465190887451
sg15
I814
sbsI50
(icore.engine
StatCollection
p212
(dp213
g3
I200
sg4
F12.989493131637573
sg5
F14.903718113899231
sg6
I2
sg7
F29.807436227798462
sg8
F14.903809547424316
sg9
S'OK'
p214
sg11
S'16:37:11'
p215
sg13
I0
sg14
F29.807619094848633
sg15
I814
sbsI51
(icore.engine
StatCollection
p216
(dp217
g3
I200
sg4
F13.73142695426941
sg5
F16.27115750312805
sg6
I2
sg7
F32.5423150062561
sg8
F16.271243929862976
sg9
S'OK'
p218
sg11
S'16:37:11'
p219
sg13
I0
sg14
F32.54248785972595
sg15
I814
sbsI52
(icore.engine
StatCollection
p220
(dp221
g3
I200
sg4
F14.404124021530151
sg5
F16.602565050125122
sg6
I2
sg7
F33.205130100250244
sg8
F16.60263752937317
sg9
S'OK'
p222
sg11
S'16:37:11'
p223
sg13
I0
sg14
F33.20527505874634
sg15
I814
sbsI53
(icore.engine
StatCollection
p224
(dp225
g3
I200
sg4
F14.06609296798706
sg5
F16.896478414535522
sg6
I2
sg7
F33.792956829071045
sg8
F16.896554470062256
sg9
S'OK'
p226
sg11
S'16:37:11'
p227
sg13
I0
sg14
F33.79310894012451
sg15
I814
sbsI54
(icore.engine
StatCollection
p228
(dp229
g3
I200
sg4
F14.885095119476318
sg5
F16.944842100143433
sg6
I2
sg7
F33.889684200286865
sg8
F16.94491159915924
sg9
S'OK'
p230
sg11
S'16:37:11'
p231
sg13
I0
sg14
F33.88982319831848
sg15
I814
sbsI55
(icore.engine
StatCollection
p232
(dp233
g3
I200
sg4
F11.923654079437256
sg5
F12.46854043006897
sg6
I2
sg7
F24.93708086013794
sg8
F12.468639016151428
sg9
S'OK'
p234
sg11
S'16:37:11'
p235
sg13
I0
sg14
F24.937278032302856
sg15
I814
sbsI56
(icore.engine
StatCollection
p236
(dp237
g3
I200
sg4
F14.128706932067871
sg5
F16.482389092445374
sg6
I2
sg7
F32.96477818489075
sg8
F16.482444047927856
sg9
S'OK'
p238
sg11
S'16:37:11'
p239
sg13
I0
sg14
F32.96488809585571
sg15
I814
sbsI57
(icore.engine
StatCollection
p240
(dp241
g3
I200
sg4
F15.844161987304688
sg5
F15.591071009635925
sg6
I2
sg7
F31.18214201927185
sg8
F15.591179013252258
sg9
S'OK'
p242
sg11
S'16:37:11'
p243
sg13
I0
sg14
F31.182358026504517
sg15
I814
sbsI58
(icore.engine
StatCollection
p244
(dp245
g3
I200
sg4
F12.953027963638306
sg5
F15.124144911766052
sg6
I2
sg7
F30.248289823532104
sg8
F15.124212384223938
sg9
S'OK'
p246
sg11
S'16:37:11'
p247
sg13
I0
sg14
F30.248424768447876
sg15
I814
sbsI59
(icore.engine
StatCollection
p248
(dp249
g3
I200
sg4
F14.737021923065186
sg5
F16.769140481948853
sg6
I2
sg7
F33.538280963897705
sg8
F16.769222021102905
sg9
S'OK'
p250
sg11
S'16:37:11'
p251
sg13
I0
sg14
F33.53844404220581
sg15
I814
sbsI60
(icore.engine
StatCollection
p252
(dp253
g3
I200
sg4
F14.091080904006958
sg5
F15.50257694721222
sg6
I2
sg7
F31.00515389442444
sg8
F15.502671360969543
sg9
S'OK'
p254
sg11
S'16:37:11'
p255
sg13
I0
sg14
F31.005342721939087
sg15
I814
sbsI61
(icore.engine
StatCollection
p256
(dp257
g3
I200
sg4
F14.723662853240967
sg5
F16.178700923919678
sg6
I2
sg7
F32.357401847839355
sg8
F16.178801894187927
sg9
S'OK'
p258
sg11
S'16:37:11'
p259
sg13
I0
sg14
F32.357603788375854
sg15
I814
sbsI62
(icore.engine
StatCollection
p260
(dp261
g3
I200
sg4
F14.151641845703125
sg5
F15.650417923927307
sg6
I2
sg7
F31.300835847854614
sg8
F15.650519490242004
sg9
S'OK'
p262
sg11
S'16:37:11'
p263
sg13
I0
sg14
F31.30103898048401
sg15
I814
sbsI63
(icore.engine
StatCollection
p264
(dp265
g3
I200
sg4
F13.868409872055054
sg5
F16.826537370681763
sg6
I2
sg7
F33.653074741363525
sg8
F16.826632857322693
sg9
S'OK'
p266
sg11
S'16:37:11'
p267
sg13
I0
sg14
F33.653265714645386
sg15
I814
sbsI64
(icore.engine
StatCollection
p268
(dp269
g3
I200
sg4
F14.042025804519653
sg5
F16.558959484100342
sg6
I2
sg7
F33.117918968200684
sg8
F16.55903398990631
sg9
S'OK'
p270
sg11
S'16:37:11'
p271
sg13
I0
sg14
F33.11806797981262
sg15
I814
sbsI65
(icore.engine
StatCollection
p272
(dp273
g3
I200
sg4
F13.4531090259552
sg5
F16.265244483947754
sg6
I2
sg7
F32.53048896789551
sg8
F16.265321016311646
sg9
S'OK'
p274
sg11
S'16:37:11'
p275
sg13
I0
sg14
F32.53064203262329
sg15
I814
sbsI66
(icore.engine
StatCollection
p276
(dp277
g3
I200
sg4
F13.824690103530884
sg5
F16.719711661338806
sg6
I2
sg7
F33.43942332267761
sg8
F16.719791650772095
sg9
S'OK'
p278
sg11
S'16:37:11'
p279
sg13
I0
sg14
F33.43958330154419
sg15
I814
sbsI67
(icore.engine
StatCollection
p280
(dp281
g3
I200
sg4
F14.189906120300293
sg5
F16.644496083259583
sg6
I2
sg7
F33.288992166519165
sg8
F16.644564628601074
sg9
S'OK'
p282
sg11
S'16:37:11'
p283
sg13
I0
sg14
F33.28912925720215
sg15
I814
sbsI68
(icore.engine
StatCollection
p284
(dp285
g3
I200
sg4
F13.101143836975098
sg5
F13.80371356010437
sg6
I2
sg7
F27.60742712020874
sg8
F13.803782939910889
sg9
S'OK'
p286
sg11
S'16:37:11'
p287
sg13
I0
sg14
F27.607565879821777
sg15
I814
sbsI69
(icore.engine
StatCollection
p288
(dp289
g3
I200
sg4
F13.84734296798706
sg5
F16.28739893436432
sg6
I2
sg7
F32.57479786872864
sg8
F16.287495970726013
sg9
S'OK'
p290
sg11
S'16:37:11'
p291
sg13
I0
sg14
F32.574991941452026
sg15
I814
sbsI70
(icore.engine
StatCollection
p292
(dp293
g3
I200
sg4
F14.897182941436768
sg5
F16.978063941001892
sg6
I2
sg7
F33.956127882003784
sg8
F16.978132367134094
sg9
S'OK'
p294
sg11
S'16:37:11'
p295
sg13
I0
sg14
F33.95626473426819
sg15
I814
sbsI71
(icore.engine
StatCollection
p296
(dp297
g3
I200
sg4
F14.612671136856079
sg5
F16.368396997451782
sg6
I2
sg7
F32.736793994903564
sg8
F16.368470072746277
sg9
S'OK'
p298
sg11
S'16:37:11'
p299
sg13
I0
sg14
F32.736940145492554
sg15
I814
sbsI72
(icore.engine
StatCollection
p300
(dp301
g3
I200
sg4
F14.344523906707764
sg5
F16.56956684589386
sg6
I2
sg7
F33.13913369178772
sg8
F16.569634437561035
sg9
S'OK'
p302
sg11
S'16:37:11'
p303
sg13
I0
sg14
F33.13926887512207
sg15
I814
sbsI73
(icore.engine
StatCollection
p304
(dp305
g3
I200
sg4
F15.076771974563599
sg5
F16.924409985542297
sg6
I2
sg7
F33.848819971084595
sg8
F16.924477458000183
sg9
S'OK'
p306
sg11
S'16:37:11'
p307
sg13
I0
sg14
F33.848954916000366
sg15
I814
sbsI74
(icore.engine
StatCollection
p308
(dp309
g3
I200
sg4
F13.227813005447388
sg5
F15.71535849571228
sg6
I2
sg7
F31.43071699142456
sg8
F15.715440511703491
sg9
S'OK'
p310
sg11
S'16:37:11'
p311
sg13
I0
sg14
F31.430881023406982
sg15
I814
sbsI75
(icore.engine
StatCollection
p312
(dp313
g3
I200
sg4
F16.17289900779724
sg5
F16.780851006507874
sg6
I2
sg7
F33.56170201301575
sg8
F16.780921578407288
sg9
S'OK'
p314
sg11
S'16:37:11'
p315
sg13
I0
sg14
F33.561843156814575
sg15
I814
sbsI76
(icore.engine
StatCollection
p316
(dp317
g3
I200
sg4
F13.675620079040527
sg5
F14.622403502464294
sg6
I2
sg7
F29.24480700492859
sg8
F14.622530460357666
sg9
S'OK'
p318
sg11
S'16:37:11'
p319
sg13
I0
sg14
F29.245060920715332
sg15
I814
sbsI77
(icore.engine
StatCollection
p320
(dp321
g3
I200
sg4
F14.750483989715576
sg5
F16.895972967147827
sg6
I2
sg7
F33.791945934295654
sg8
F16.896052479743958
sg9
S'OK'
p322
sg11
S'16:37:11'
p323
sg13
I0
sg14
F33.792104959487915
sg15
I814
sbsI78
(icore.engine
StatCollection
p324
(dp325
g3
I200
sg4
F15.058055877685547
sg5
F16.0960910320282
sg6
I2
sg7
F32.1921820640564
sg8
F16.09618043899536
sg9
S'OK'
p326
sg11
S'16:37:11'
p327
sg13
I0
sg14
F32.19236087799072
sg15
I814
sbsI79
(icore.engine
StatCollection
p328
(dp329
g3
I200
sg4
F14.246070861816406
sg5
F16.927101969718933
sg6
I2
sg7
F33.854203939437866
sg8
F16.927162528038025
sg9
S'OK'
p330
sg11
S'16:37:11'
p331
sg13
I0
sg14
F33.85432505607605
sg15
I814
sbsI80
(icore.engine
StatCollection
p332
(dp333
g3
I200
sg4
F14.90239691734314
sg5
F16.25643539428711
sg6
I2
sg7
F32.51287078857422
sg8
F16.256515979766846
sg9
S'OK'
p334
sg11
S'16:37:11'
p335
sg13
I0
sg14
F32.51303195953369
sg15
I814
sbsI81
(icore.engine
StatCollection
p336
(dp337
g3
I200
sg4
F14.893683910369873
sg5
F15.833293914794922
sg6
I2
sg7
F31.666587829589844
sg8
F15.833398938179016
sg9
S'OK'
p338
sg11
S'16:37:11'
p339
sg13
I0
sg14
F31.666797876358032
sg15
I814
sbsI82
(icore.engine
StatCollection
p340
(dp341
g3
I200
sg4
F12.31968903541565
sg5
F13.656781077384949
sg6
I2
sg7
F27.313562154769897
sg8
F13.656853079795837
sg9
S'OK'
p342
sg11
S'16:37:11'
p343
sg13
I0
sg14
F27.313706159591675
sg15
I814
sbsI83
(icore.engine
StatCollection
p344
(dp345
g3
I200
sg4
F14.941918134689331
sg5
F16.850389003753662
sg6
I2
sg7
F33.700778007507324
sg8
F16.85048198699951
sg9
S'OK'
p346
sg11
S'16:37:11'
p347
sg13
I0
sg14
F33.70096397399902
sg15
I814
sbsI84
(icore.engine
StatCollection
p348
(dp349
g3
I200
sg4
F14.000503063201904
sg5
F16.399088621139526
sg6
I2
sg7
F32.79817724227905
sg8
F16.399155020713806
sg9
S'OK'
p350
sg11
S'16:37:11'
p351
sg13
I0
sg14
F32.79831004142761
sg15
I814
sbsI85
(icore.engine
StatCollection
p352
(dp353
g3
I200
sg4
F11.26744794845581
sg5
F13.4255450963974
sg6
I2
sg7
F26.8510901927948
sg8
F13.425657510757446
sg9
S'OK'
p354
sg11
S'16:37:11'
p355
sg13
I0
sg14
F26.851315021514893
sg15
I814
sbsI86
(icore.engine
StatCollection
p356
(dp357
g3
I200
sg4
F11.000395774841309
sg5
F13.274856448173523
sg6
I2
sg7
F26.549712896347046
sg8
F13.274922370910645
sg9
S'OK'
p358
sg11
S'16:37:11'
p359
sg13
I0
sg14
F26.54984474182129
sg15
I814
sbsI87
(icore.engine
StatCollection
p360
(dp361
g3
I200
sg4
F14.807183027267456
sg5
F16.78433108329773
sg6
I2
sg7
F33.56866216659546
sg8
F16.784394025802612
sg9
S'OK'
p362
sg11
S'16:37:11'
p363
sg13
I0
sg14
F33.568788051605225
sg15
I814
sbsI88
(icore.engine
StatCollection
p364
(dp365
g3
I200
sg4
F14.291581153869629
sg5
F16.55490255355835
sg6
I2
sg7
F33.1098051071167
sg8
F16.554986000061035
sg9
S'OK'
p366
sg11
S'16:37:11'
p367
sg13
I0
sg14
F33.10997200012207
sg15
I814
sbsI89
(icore.engine
StatCollection
p368
(dp369
g3
I200
sg4
F12.621315002441406
sg5
F15.822144031524658
sg6
I2
sg7
F31.644288063049316
sg8
F15.822219491004944
sg9
S'OK'
p370
sg11
S'16:37:11'
p371
sg13
I0
sg14
F31.644438982009888
sg15
I814
sbsI90
(icore.engine
StatCollection
p372
(dp373
g3
I200
sg4
F11.918261051177979
sg5
F12.792380928993225
sg6
I2
sg7
F25.58476185798645
sg8
F12.792462468147278
sg9
S'OK'
p374
sg11
S'16:37:11'
p375
sg13
I0
sg14
F25.584924936294556
sg15
I814
sbsI91
(icore.engine
StatCollection
p376
(dp377
g3
I200
sg4
F12.52158808708191
sg5
F15.051470041275024
sg6
I2
sg7
F30.10294008255005
sg8
F15.05154550075531
sg9
S'OK'
p378
sg11
S'16:37:11'
p379
sg13
I0
sg14
F30.10309100151062
sg15
I814
sbsI92
(icore.engine
StatCollection
p380
(dp381
g3
I200
sg4
F14.622496128082275
sg5
F16.9351145029068
sg6
I2
sg7
F33.8702290058136
sg8
F16.935189485549927
sg9
S'OK'
p382
sg11
S'16:37:11'
p383
sg13
I0
sg14
F33.87037897109985
sg15
I814
sbsI93
(icore.engine
StatCollection
p384
(dp385
g3
I200
sg4
F16.371577978134155
sg5
F16.576906442642212
sg6
I2
sg7
F33.153812885284424
sg8
F16.576981902122498
sg9
S'OK'
p386
sg11
S'16:37:11'
p387
sg13
I0
sg14
F33.153963804244995
sg15
I814
sbsI94
(icore.engine
StatCollection
p388
(dp389
g3
I200
sg4
F12.722920894622803
sg5
F13.535614967346191
sg6
I2
sg7
F27.071229934692383
sg8
F13.535699963569641
sg9
S'OK'
p390
sg11
S'16:37:11'
p391
sg13
I0
sg14
F27.071399927139282
sg15
I814
sbsI95
(icore.engine
StatCollection
p392
(dp393
g3
I200
sg4
F14.789445877075195
sg5
F16.910656452178955
sg6
I2
sg7
F33.82131290435791
sg8
F16.91072189807892
sg9
S'OK'
p394
sg11
S'16:37:11'
p395
sg13
I0
sg14
F33.82144379615784
sg15
I814
sbsI96
(icore.engine
StatCollection
p396
(dp397
g3
I200
sg4
F14.990135908126831
sg5
F16.885555028915405
sg6
I2
sg7
F33.77111005783081
sg8
F16.885626554489136
sg9
S'OK'
p398
sg11
S'16:37:11'
p399
sg13
I0
sg14
F33.77125310897827
sg15
I814
sbsI97
(icore.engine
StatCollection
p400
(dp401
g3
I200
sg4
F11.786142110824585
sg5
F13.691389441490173
sg6
I2
sg7
F27.382778882980347
sg8
F13.691467046737671
sg9
S'OK'
p402
sg11
S'16:37:11'
p403
sg13
I0
sg14
F27.382934093475342
sg15
I814
sbsI98
(icore.engine
StatCollection
p404
(dp405
g3
I200
sg4
F14.911622047424316
sg5
F15.843713521957397
sg6
I2
sg7
F31.687427043914795
sg8
F15.843782544136047
sg9
S'OK'
p406
sg11
S'16:37:11'
p407
sg13
I0
sg14
F31.687565088272095
sg15
I814
sbsI99
(icore.engine
StatCollection
p408
(dp409
g3
I200
sg4
F14.90918493270874
sg5
F15.681061029434204
sg6
I2
sg7
F31.362122058868408
sg8
F15.681137442588806
sg9
S'OK'
p410
sg11
S'16:37:11'
p411
sg13
I0
sg14
F31.362274885177612
sg15
I814
sbsI100
(icore.engine
StatCollection
p412
(dp413
g3
I200
sg4
F13.849561929702759
sg5
F14.659348487854004
sg6
I2
sg7
F29.318696975708008
sg8
F14.65941846370697
sg9
S'OK'
p414
sg11
S'16:37:11'
p415
sg13
I0
sg14
F29.31883692741394
sg15
I814
sbsI101
(icore.engine
StatCollection
p416
(dp417
g3
I200
sg4
F11.130385160446167
sg5
F14.523928046226501
sg6
I2
sg7
F29.047856092453003
sg8
F14.523999571800232
sg9
S'OK'
p418
sg11
S'16:37:11'
p419
sg13
I0
sg14
F29.047999143600464
sg15
I814
sbsI102
(icore.engine
StatCollection
p420
(dp421
g3
I200
sg4
F14.714267015457153
sg5
F15.203597068786621
sg6
I2
sg7
F30.407194137573242
sg8
F15.203706502914429
sg9
S'OK'
p422
sg11
S'16:37:11'
p423
sg13
I0
sg14
F30.407413005828857
sg15
I814
sbsI103
(icore.engine
StatCollection
p424
(dp425
g3
I200
sg4
F15.52997088432312
sg5
F16.677184581756592
sg6
I2
sg7
F33.354369163513184
sg8
F16.67726242542267
sg9
S'OK'
p426
sg11
S'16:37:11'
p427
sg13
I0
sg14
F33.35452485084534
sg15
I814
sbsI104
(icore.engine
StatCollection
p428
(dp429
g3
I200
sg4
F13.782420873641968
sg5
F13.738969564437866
sg6
I2
sg7
F27.477939128875732
sg8
F13.739044904708862
sg9
S'OK'
p430
sg11
S'16:37:11'
p431
sg13
I0
sg14
F27.478089809417725
sg15
I814
sbsI105
(icore.engine
StatCollection
p432
(dp433
g3
I200
sg4
F14.907186031341553
sg5
F16.8896404504776
sg6
I2
sg7
F33.7792809009552
sg8
F16.88973891735077
sg9
S'OK'
p434
sg11
S'16:37:11'
p435
sg13
I0
sg14
F33.77947783470154
sg15
I814
sbsI106
(icore.engine
StatCollection
p436
(dp437
g3
I200
sg4
F13.34130311012268
sg5
F15.826539039611816
sg6
I2
sg7
F31.653078079223633
sg8
F15.82659900188446
sg9
S'OK'
p438
sg11
S'16:37:11'
p439
sg13
I0
sg14
F31.65319800376892
sg15
I814
sbsI107
(icore.engine
StatCollection
p440
(dp441
g3
I200
sg4
F15.057173013687134
sg5
F16.662526488304138
sg6
I2
sg7
F33.325052976608276
sg8
F16.662595510482788
sg9
S'OK'
p442
sg11
S'16:37:11'
p443
sg13
I0
sg14
F33.325191020965576
sg15
I814
sbsI108
(icore.engine
StatCollection
p444
(dp445
g3
I200
sg4
F12.056792974472046
sg5
F14.44757890701294
sg6
I2
sg7
F28.89515781402588
sg8
F14.447665929794312
sg9
S'OK'
p446
sg11
S'16:37:11'
p447
sg13
I0
sg14
F28.895331859588623
sg15
I814
sbsI109
(icore.engine
StatCollection
p448
(dp449
g3
I200
sg4
F14.8536958694458
sg5
F16.92612850666046
sg6
I2
sg7
F33.85225701332092
sg8
F16.92619490623474
sg9
S'OK'
p450
sg11
S'16:37:11'
p451
sg13
I0
sg14
F33.85238981246948
sg15
I814
sbsI110
(icore.engine
StatCollection
p452
(dp453
g3
I200
sg4
F14.84186315536499
sg5
F16.909276127815247
sg6
I2
sg7
F33.81855225563049
sg8
F16.909345030784607
sg9
S'OK'
p454
sg11
S'16:37:11'
p455
sg13
I0
sg14
F33.818690061569214
sg15
I814
sbsI111
(icore.engine
StatCollection
p456
(dp457
g3
I200
sg4
F13.227743864059448
sg5
F15.157657504081726
sg6
I2
sg7
F30.315315008163452
sg8
F15.15773093700409
sg9
S'OK'
p458
sg11
S'16:37:11'
p459
sg13
I0
sg14
F30.31546187400818
sg15
I814
sbsI112
(icore.engine
StatCollection
p460
(dp461
g3
I200
sg4
F14.000992059707642
sg5
F16.913477540016174
sg6
I2
sg7
F33.82695508003235
sg8
F16.913572072982788
sg9
S'OK'
p462
sg11
S'16:37:11'
p463
sg13
I0
sg14
F33.827144145965576
sg15
I814
sbsI113
(icore.engine
StatCollection
p464
(dp465
g3
I200
sg4
F14.256222009658813
sg5
F16.96741259098053
sg6
I2
sg7
F33.93482518196106
sg8
F16.967472434043884
sg9
S'OK'
p466
sg11
S'16:37:11'
p467
sg13
I0
sg14
F33.93494486808777
sg15
I814
sbsI114
(icore.engine
StatCollection
p468
(dp469
g3
I200
sg4
F13.039813995361328
sg5
F16.024722576141357
sg6
I2
sg7
F32.049445152282715
sg8
F16.024827480316162
sg9
S'OK'
p470
sg11
S'16:37:11'
p471
sg13
I0
sg14
F32.049654960632324
sg15
I814
sbsI115
(icore.engine
StatCollection
p472
(dp473
g3
I200
sg4
F14.411081075668335
sg5
F16.69013261795044
sg6
I2
sg7
F33.38026523590088
sg8
F16.690199613571167
sg9
S'OK'
p474
sg11
S'16:37:11'
p475
sg13
I0
sg14
F33.380399227142334
sg15
I814
sbsI116
(icore.engine
StatCollection
p476
(dp477
g3
I200
sg4
F14.463422060012817
sg5
F16.73248553276062
sg6
I2
sg7
F33.46497106552124
sg8
F16.732573986053467
sg9
S'OK'
p478
sg11
S'16:37:11'
p479
sg13
I0
sg14
F33.465147972106934
sg15
I814
sbsI117
(icore.engine
StatCollection
p480
(dp481
g3
I200
sg4
F14.744448900222778
sg5
F16.870880961418152
sg6
I2
sg7
F33.741761922836304
sg8
F16.8709534406662
sg9
S'OK'
p482
sg11
S'16:37:11'
p483
sg13
I0
sg14
F33.7419068813324
sg15
I814
sbsI118
(icore.engine
StatCollection
p484
(dp485
g3
I200
sg4
F12.908711194992065
sg5
F15.2328360080719
sg6
I2
sg7
F30.4656720161438
sg8
F15.232908606529236
sg9
S'OK'
p486
sg11
S'16:37:11'
p487
sg13
I0
sg14
F30.46581721305847
sg15
I814
sbsI119
(icore.engine
StatCollection
p488
(dp489
g3
I200
sg4
F14.701453924179077
sg5
F15.808750987052917
sg6
I2
sg7
F31.617501974105835
sg8
F15.808807015419006
sg9
S'OK'
p490
sg11
S'16:37:11'
p491
sg13
I0
sg14
F31.617614030838013
sg15
I814
sbsI120
(icore.engine
StatCollection
p492
(dp493
g3
I200
sg4
F13.08190393447876
sg5
F14.20369803905487
sg6
I2
sg7
F28.40739607810974
sg8
F14.203776955604553
sg9
S'OK'
p494
sg11
S'16:37:11'
p495
sg13
I0
sg14
F28.407553911209106
sg15
I814
sbsI121
(icore.engine
StatCollection
p496
(dp497
g3
I200
sg4
F15.00822401046753
sg5
F15.33427083492279
sg6
I2
sg7
F30.66854166984558
sg8
F15.334337949752808
sg9
S'OK'
p498
sg11
S'16:37:11'
p499
sg13
I0
sg14
F30.668675899505615
sg15
I814
sbsI122
(icore.engine
StatCollection
p500
(dp501
g3
I200
sg4
F14.052260160446167
sg5
F16.92306900024414
sg6
I2
sg7
F33.84613800048828
sg8
F16.923163056373596
sg9
S'OK'
p502
sg11
S'16:37:11'
p503
sg13
I0
sg14
F33.84632611274719
sg15
I814
sbsI123
(icore.engine
StatCollection
p504
(dp505
g3
I200
sg4
F13.649723052978516
sg5
F16.59524655342102
sg6
I2
sg7
F33.19049310684204
sg8
F16.59531259536743
sg9
S'OK'
p506
sg11
S'16:37:11'
p507
sg13
I0
sg14
F33.19062519073486
sg15
I814
sbsI124
(icore.engine
StatCollection
p508
(dp509
g3
I200
sg4
F13.965961933135986
sg5
F16.75100600719452
sg6
I2
sg7
F33.50201201438904
sg8
F16.75109302997589
sg9
S'OK'
p510
sg11
S'16:37:11'
p511
sg13
I0
sg14
F33.50218605995178
sg15
I814
sbsI125
(icore.engine
StatCollection
p512
(dp513
g3
I200
sg4
F13.492824077606201
sg5
F13.409481406211853
sg6
I2
sg7
F26.818962812423706
sg8
F13.409557461738586
sg9
S'OK'
p514
sg11
S'16:37:11'
p515
sg13
I0
sg14
F26.819114923477173
sg15
I814
sbsI126
(icore.engine
StatCollection
p516
(dp517
g3
I200
sg4
F15.147395849227905
sg5
F16.595579981803894
sg6
I2
sg7
F33.19115996360779
sg8
F16.59563136100769
sg9
S'OK'
p518
sg11
S'16:37:11'
p519
sg13
I0
sg14
F33.19126272201538
sg15
I814
sbsI127
(icore.engine
StatCollection
p520
(dp521
g3
I200
sg4
F14.863190174102783
sg5
F16.93752610683441
sg6
I2
sg7
F33.87505221366882
sg8
F16.937586069107056
sg9
S'OK'
p522
sg11
S'16:37:11'
p523
sg13
I0
sg14
F33.87517213821411
sg15
I814
sbsI128
(icore.engine
StatCollection
p524
(dp525
g3
I200
sg4
F14.32216501235962
sg5
F16.05594050884247
sg6
I2
sg7
F32.11188101768494
sg8
F16.056032061576843
sg9
S'OK'
p526
sg11
S'16:37:11'
p527
sg13
I0
sg14
F32.11206412315369
sg15
I814
sbsI129
(icore.engine
StatCollection
p528
(dp529
g3
I200
sg4
F11.228106021881104
sg5
F13.852034211158752
sg6
I2
sg7
F27.704068422317505
sg8
F13.852129578590393
sg9
S'OK'
p530
sg11
S'16:37:11'
p531
sg13
I0
sg14
F27.704259157180786
sg15
I814
sbsI130
(icore.engine
StatCollection
p532
(dp533
g3
I200
sg4
F14.683413028717041
sg5
F16.689395427703857
sg6
I2
sg7
F33.378790855407715
sg8
F16.68948245048523
sg9
S'OK'
p534
sg11
S'16:37:11'
p535
sg13
I0
sg14
F33.37896490097046
sg15
I814
sbsI131
(icore.engine
StatCollection
p536
(dp537
g3
I200
sg4
F15.037877798080444
sg5
F16.863433837890625
sg6
I2
sg7
F33.72686767578125
sg8
F16.863536834716797
sg9
S'OK'
p538
sg11
S'16:37:11'
p539
sg13
I0
sg14
F33.727073669433594
sg15
I814
sbsI132
(icore.engine
StatCollection
p540
(dp541
g3
I200
sg4
F14.86786699295044
sg5
F16.91766095161438
sg6
I2
sg7
F33.83532190322876
sg8
F16.91772949695587
sg9
S'OK'
p542
sg11
S'16:37:11'
p543
sg13
I0
sg14
F33.83545899391174
sg15
I814
sbsI133
(icore.engine
StatCollection
p544
(dp545
g3
I200
sg4
F16.29866099357605
sg5
F15.351295471191406
sg6
I2
sg7
F30.702590942382812
sg8
F15.351385474205017
sg9
S'OK'
p546
sg11
S'16:37:11'
p547
sg13
I0
sg14
F30.702770948410034
sg15
I814
sbsI134
(icore.engine
StatCollection
p548
(dp549
g3
I200
sg4
F12.82865595817566
sg5
F13.332019567489624
sg6
I2
sg7
F26.664039134979248
sg8
F13.3321053981781
sg9
S'OK'
p550
sg11
S'16:37:11'
p551
sg13
I0
sg14
F26.6642107963562
sg15
I814
sbsI135
(icore.engine
StatCollection
p552
(dp553
g3
I200
sg4
F20.293758153915405
sg5
F20.293702125549316
sg6
I1
sg7
F20.293702125549316
sg8
F20.293758153915405
sg9
S'OK'
p554
sg11
S'16:37:11'
p555
sg13
I0
sg14
F20.293758153915405
sg15
I407
sbsI136
(icore.engine
StatCollection
p556
(dp557
g3
I200
sg4
F14.838172912597656
sg5
F16.755358457565308
sg6
I2
sg7
F33.510716915130615
sg8
F16.755433440208435
sg9
S'OK'
p558
sg11
S'16:37:11'
p559
sg13
I0
sg14
F33.51086688041687
sg15
I814
sbsI137
(icore.engine
StatCollection
p560
(dp561
g3
I200
sg4
F16.147515058517456
sg5
F15.538619637489319
sg6
I2
sg7
F31.077239274978638
sg8
F15.538693070411682
sg9
S'OK'
p562
sg11
S'16:37:11'
p563
sg13
I0
sg14
F31.077386140823364
sg15
I814
sbsI138
(icore.engine
StatCollection
p564
(dp565
g3
I200
sg4
F11.900836944580078
sg5
F12.193780899047852
sg6
I2
sg7
F24.387561798095703
sg8
F12.19386899471283
sg9
S'OK'
p566
sg11
S'16:37:11'
p567
sg13
I0
sg14
F24.38773798942566
sg15
I814
sbsI139
(icore.engine
StatCollection
p568
(dp569
g3
I200
sg4
F14.647491931915283
sg5
F16.797512531280518
sg6
I2
sg7
F33.595025062561035
sg8
F16.797574996948242
sg9
S'OK'
p570
sg11
S'16:37:11'
p571
sg13
I0
sg14
F33.595149993896484
sg15
I814
sbsI140
(icore.engine
StatCollection
p572
(dp573
g3
I200
sg4
F14.348775863647461
sg5
F16.92969298362732
sg6
I2
sg7
F33.85938596725464
sg8
F16.9297753572464
sg9
S'OK'
p574
sg11
S'16:37:11'
p575
sg13
I0
sg14
F33.8595507144928
sg15
I814
sbsI141
(icore.engine
StatCollection
p576
(dp577
g3
I200
sg4
F14.91575813293457
sg5
F16.794926404953003
sg6
I2
sg7
F33.589852809906006
sg8
F16.795010566711426
sg9
S'OK'
p578
sg11
S'16:37:11'
p579
sg13
I0
sg14
F33.59002113342285
sg15
I814
sbsI142
(icore.engine
StatCollection
p580
(dp581
g3
I200
sg4
F13.103111028671265
sg5
F16.332825541496277
sg6
I2
sg7
F32.665651082992554
sg8
F16.33294653892517
sg9
S'OK'
p582
sg11
S'16:37:11'
p583
sg13
I0
sg14
F32.66589307785034
sg15
I814
sbsI143
(icore.engine
StatCollection
p584
(dp585
g3
I200
sg4
F15.291654109954834
sg5
F16.16066539287567
sg6
I2
sg7
F32.32133078575134
sg8
F16.160735487937927
sg9
S'OK'
p586
sg11
S'16:37:11'
p587
sg13
I0
sg14
F32.321470975875854
sg15
I814
sbsI144
(icore.engine
StatCollection
p588
(dp589
g3
I200
sg4
F14.75657606124878
sg5
F16.792065501213074
sg6
I2
sg7
F33.58413100242615
sg8
F16.7921324968338
sg9
S'OK'
p590
sg11
S'16:37:11'
p591
sg13
I0
sg14
F33.5842649936676
sg15
I814
sbsI145
(icore.engine
StatCollection
p592
(dp593
g3
I200
sg4
F13.189875841140747
sg5
F15.23667311668396
sg6
I2
sg7
F30.47334623336792
sg8
F15.23676347732544
sg9
S'OK'
p594
sg11
S'16:37:11'
p595
sg13
I0
sg14
F30.47352695465088
sg15
I814
sbsI146
(icore.engine
StatCollection
p596
(dp597
g3
I200
sg4
F20.36765694618225
sg5
F20.367603063583374
sg6
I1
sg7
F20.367603063583374
sg8
F20.36765694618225
sg9
S'OK'
p598
sg11
S'16:37:11'
p599
sg13
I0
sg14
F20.36765694618225
sg15
I407
sbsI147
(icore.engine
StatCollection
p600
(dp601
g3
I200
sg4
F13.23697304725647
sg5
F13.196566939353943
sg6
I2
sg7
F26.393133878707886
sg8
F13.196653962135315
sg9
S'OK'
p602
sg11
S'16:37:11'
p603
sg13
I0
sg14
F26.39330792427063
sg15
I814
sbsI148
(icore.engine
StatCollection
p604
(dp605
g3
I200
sg4
F16.06285810470581
sg5
F16.368324995040894
sg6
I2
sg7
F32.73664999008179
sg8
F16.368404030799866
sg9
S'OK'
p606
sg11
S'16:37:11'
p607
sg13
I0
sg14
F32.73680806159973
sg15
I814
sbsI149
(icore.engine
StatCollection
p608
(dp609
g3
I200
sg4
F14.525082111358643
sg5
F16.737317085266113
sg6
I2
sg7
F33.47463417053223
sg8
F16.737380027770996
sg9
S'OK'
p610
sg11
S'16:37:11'
p611
sg13
I0
sg14
F33.47476005554199
sg15
I814
sbsI150
(icore.engine
StatCollection
p612
(dp613
g3
I200
sg4
F14.963130950927734
sg5
F16.819702982902527
sg6
I2
sg7
F33.639405965805054
sg8
F16.81976842880249
sg9
S'OK'
p614
sg11
S'16:37:11'
p615
sg13
I0
sg14
F33.63953685760498
sg15
I814
sbsI151
(icore.engine
StatCollection
p616
(dp617
g3
I200
sg4
F13.516058921813965
sg5
F16.557068943977356
sg6
I2
sg7
F33.11413788795471
sg8
F16.557140946388245
sg9
S'OK'
p618
sg11
S'16:37:11'
p619
sg13
I0
sg14
F33.11428189277649
sg15
I814
sbsI152
(icore.engine
StatCollection
p620
(dp621
g3
I200
sg4
F13.994757175445557
sg5
F16.728508472442627
sg6
I2
sg7
F33.457016944885254
sg8
F16.728580117225647
sg9
S'OK'
p622
sg11
S'16:37:11'
p623
sg13
I0
sg14
F33.457160234451294
sg15
I814
sbsI153
(icore.engine
StatCollection
p624
(dp625
g3
I200
sg4
F13.552130937576294
sg5
F16.242085456848145
sg6
I2
sg7
F32.48417091369629
sg8
F16.24215793609619
sg9
S'OK'
p626
sg11
S'16:37:11'
p627
sg13
I0
sg14
F32.48431587219238
sg15
I814
sbsI154
(icore.engine
StatCollection
p628
(dp629
g3
I200
sg4
F11.128412961959839
sg5
F12.66444993019104
sg6
I2
sg7
F25.32889986038208
sg8
F12.66454792022705
sg9
S'OK'
p630
sg11
S'16:37:11'
p631
sg13
I0
sg14
F25.3290958404541
sg15
I814
sbsI155
(icore.engine
StatCollection
p632
(dp633
g3
I200
sg4
F14.724769830703735
sg5
F16.686426877975464
sg6
I2
sg7
F33.37285375595093
sg8
F16.68650984764099
sg9
S'OK'
p634
sg11
S'16:37:11'
p635
sg13
I0
sg14
F33.37301969528198
sg15
I814
sbsI156
(icore.engine
StatCollection
p636
(dp637
g3
I200
sg4
F14.915382862091064
sg5
F16.854703068733215
sg6
I2
sg7
F33.70940613746643
sg8
F16.854768991470337
sg9
S'OK'
p638
sg11
S'16:37:11'
p639
sg13
I0
sg14
F33.709537982940674
sg15
I814
sbsI157
(icore.engine
StatCollection
p640
(dp641
g3
I200
sg4
F13.278934955596924
sg5
F15.467427015304565
sg6
I2
sg7
F30.93485403060913
sg8
F15.467532396316528
sg9
S'OK'
p642
sg11
S'16:37:11'
p643
sg13
I0
sg14
F30.935064792633057
sg15
I814
sbsI158
(icore.engine
StatCollection
p644
(dp645
g3
I200
sg4
F12.846436023712158
sg5
F14.997097492218018
sg6
I2
sg7
F29.994194984436035
sg8
F14.997170567512512
sg9
S'OK'
p646
sg11
S'16:37:11'
p647
sg13
I0
sg14
F29.994341135025024
sg15
I814
sbsI159
(icore.engine
StatCollection
p648
(dp649
g3
I200
sg4
F14.010415077209473
sg5
F15.384246110916138
sg6
I2
sg7
F30.768492221832275
sg8
F15.384318947792053
sg9
S'OK'
p650
sg11
S'16:37:11'
p651
sg13
I0
sg14
F30.768637895584106
sg15
I814
sbsI160
(icore.engine
StatCollection
p652
(dp653
g3
I200
sg4
F14.278743028640747
sg5
F14.915113925933838
sg6
I2
sg7
F29.830227851867676
sg8
F14.915196418762207
sg9
S'OK'
p654
sg11
S'16:37:11'
p655
sg13
I0
sg14
F29.830392837524414
sg15
I814
sbsI161
(icore.engine
StatCollection
p656
(dp657
g3
I200
sg4
F14.122679948806763
sg5
F16.796448469161987
sg6
I2
sg7
F33.592896938323975
sg8
F16.796512961387634
sg9
S'OK'
p658
sg11
S'16:37:11'
p659
sg13
I0
sg14
F33.59302592277527
sg15
I814
sbsI162
(icore.engine
StatCollection
p660
(dp661
g3
I200
sg4
F12.144047021865845
sg5
F12.384838461875916
sg6
I2
sg7
F24.76967692375183
sg8
F12.384918928146362
sg9
S'OK'
p662
sg11
S'16:37:11'
p663
sg13
I0
sg14
F24.769837856292725
sg15
I814
sbsI163
(icore.engine
StatCollection
p664
(dp665
g3
I200
sg4
F15.105708837509155
sg5
F16.115793466567993
sg6
I2
sg7
F32.231586933135986
sg8
F16.1159029006958
sg9
S'OK'
p666
sg11
S'16:37:11'
p667
sg13
I0
sg14
F32.2318058013916
sg15
I814
sbsI164
(icore.engine
StatCollection
p668
(dp669
g3
I200
sg4
F12.39650297164917
sg5
F14.532055020332336
sg6
I2
sg7
F29.064110040664673
sg8
F14.53217887878418
sg9
S'OK'
p670
sg11
S'16:37:11'
p671
sg13
I0
sg14
F29.06435775756836
sg15
I814
sbsI165
(icore.engine
StatCollection
p672
(dp673
g3
I200
sg4
F14.205530881881714
sg5
F16.840116024017334
sg6
I2
sg7
F33.68023204803467
sg8
F16.840187430381775
sg9
S'OK'
p674
sg11
S'16:37:11'
p675
sg13
I0
sg14
F33.68037486076355
sg15
I814
sbsI166
(icore.engine
StatCollection
p676
(dp677
g3
I200
sg4
F14.05660605430603
sg5
F16.790130496025085
sg6
I2
sg7
F33.58026099205017
sg8
F16.790194988250732
sg9
S'OK'
p678
sg11
S'16:37:11'
p679
sg13
I0
sg14
F33.580389976501465
sg15
I814
sbsI167
(icore.engine
StatCollection
p680
(dp681
g3
I200
sg4
F14.001554012298584
sg5
F16.735651969909668
sg6
I2
sg7
F33.471303939819336
sg8
F16.735713958740234
sg9
S'OK'
p682
sg11
S'16:37:11'
p683
sg13
I0
sg14
F33.47142791748047
sg15
I814
sbsI168
(icore.engine
StatCollection
p684
(dp685
g3
I200
sg4
F20.23524284362793
sg5
F20.23515295982361
sg6
I1
sg7
F20.23515295982361
sg8
F20.23524284362793
sg9
S'OK'
p686
sg11
S'16:37:11'
p687
sg13
I0
sg14
F20.23524284362793
sg15
I407
sbsI169
(icore.engine
StatCollection
p688
(dp689
g3
I200
sg4
F12.668572902679443
sg5
F13.96840786933899
sg6
I2
sg7
F27.93681573867798
sg8
F13.96850597858429
sg9
S'OK'
p690
sg11
S'16:37:11'
p691
sg13
I0
sg14
F27.93701195716858
sg15
I814
sbsI170
(icore.engine
StatCollection
p692
(dp693
g3
I200
sg4
F14.566625118255615
sg5
F14.929707050323486
sg6
I2
sg7
F29.859414100646973
sg8
F14.929779052734375
sg9
S'OK'
p694
sg11
S'16:37:11'
p695
sg13
I0
sg14
F29.85955810546875
sg15
I814
sbsI171
(icore.engine
StatCollection
p696
(dp697
g3
I200
sg4
F11.674571990966797
sg5
F14.206091523170471
sg6
I2
sg7
F28.412183046340942
sg8
F14.206168055534363
sg9
S'OK'
p698
sg11
S'16:37:11'
p699
sg13
I0
sg14
F28.412336111068726
sg15
I814
sbsI172
(icore.engine
StatCollection
p700
(dp701
g3
I200
sg4
F15.013530969619751
sg5
F16.5910085439682
sg6
I2
sg7
F33.1820170879364
sg8
F16.591124534606934
sg9
S'OK'
p702
sg11
S'16:37:11'
p703
sg13
I0
sg14
F33.18224906921387
sg15
I814
sbsI173
(icore.engine
StatCollection
p704
(dp705
g3
I200
sg4
F14.011558055877686
sg5
F16.872398495674133
sg6
I2
sg7
F33.74479699134827
sg8
F16.872459530830383
sg9
S'OK'
p706
sg11
S'16:37:11'
p707
sg13
I0
sg14
F33.74491906166077
sg15
I814
sbsI174
(icore.engine
StatCollection
p708
(dp709
g3
I200
sg4
F13.362272024154663
sg5
F16.125137448310852
sg6
I2
sg7
F32.250274896621704
sg8
F16.1252019405365
sg9
S'OK'
p710
sg11
S'16:37:11'
p711
sg13
I0
sg14
F32.250403881073
sg15
I814
sbsI175
(icore.engine
StatCollection
p712
(dp713
g3
I200
sg4
F14.250044107437134
sg5
F16.429361581802368
sg6
I2
sg7
F32.858723163604736
sg8
F16.429421067237854
sg9
S'OK'
p714
sg11
S'16:37:11'
p715
sg13
I0
sg14
F32.85884213447571
sg15
I814
sbsI176
(icore.engine
StatCollection
p716
(dp717
g3
I200
sg4
F12.655494928359985
sg5
F15.048976421356201
sg6
I2
sg7
F30.097952842712402
sg8
F15.049052357673645
sg9
S'OK'
p718
sg11
S'16:37:11'
p719
sg13
I0
sg14
F30.09810471534729
sg15
I814
sbsI177
(icore.engine
StatCollection
p720
(dp721
g3
I200
sg4
F13.342406034469604
sg5
F14.30896246433258
sg6
I2
sg7
F28.61792492866516
sg8
F14.30904996395111
sg9
S'OK'
p722
sg11
S'16:37:11'
p723
sg13
I0
sg14
F28.61809992790222
sg15
I814
sbsI178
(icore.engine
StatCollection
p724
(dp725
g3
I200
sg4
F14.522783041000366
sg5
F16.66927194595337
sg6
I2
sg7
F33.33854389190674
sg8
F16.669339060783386
sg9
S'OK'
p726
sg11
S'16:37:11'
p727
sg13
I0
sg14
F33.33867812156677
sg15
I814
sbsI179
(icore.engine
StatCollection
p728
(dp729
g3
I200
sg4
F14.056187152862549
sg5
F16.47319197654724
sg6
I2
sg7
F32.94638395309448
sg8
F16.473296999931335
sg9
S'OK'
p730
sg11
S'16:37:11'
p731
sg13
I0
sg14
F32.94659399986267
sg15
I814
sbsI180
(icore.engine
StatCollection
p732
(dp733
g3
I200
sg4
F14.581224918365479
sg5
F15.045339465141296
sg6
I2
sg7
F30.090678930282593
sg8
F15.045417428016663
sg9
S'OK'
p734
sg11
S'16:37:11'
p735
sg13
I0
sg14
F30.090834856033325
sg15
I814
sbsI181
(icore.engine
StatCollection
p736
(dp737
g3
I200
sg4
F15.540953874588013
sg5
F16.079891562461853
sg6
I2
sg7
F32.159783124923706
sg8
F16.079983472824097
sg9
S'OK'
p738
sg11
S'16:37:11'
p739
sg13
I0
sg14
F32.15996694564819
sg15
I814
sbsI182
(icore.engine
StatCollection
p740
(dp741
g3
I200
sg4
F16.171268939971924
sg5
F16.409650921821594
sg6
I2
sg7
F32.81930184364319
sg8
F16.409713983535767
sg9
S'OK'
p742
sg11
S'16:37:11'
p743
sg13
I0
sg14
F32.81942796707153
sg15
I814
sbsI183
(icore.engine
StatCollection
p744
(dp745
g3
I200
sg4
F16.696415901184082
sg5
F15.5114905834198
sg6
I2
sg7
F31.0229811668396
sg8
F15.511586427688599
sg9
S'OK'
p746
sg11
S'16:37:11'
p747
sg13
I0
sg14
F31.023172855377197
sg15
I814
sbsI184
(icore.engine
StatCollection
p748
(dp749
g3
I200
sg4
F19.908627033233643
sg5
F19.90855097770691
sg6
I1
sg7
F19.90855097770691
sg8
F19.908627033233643
sg9
S'OK'
p750
sg11
S'16:37:11'
p751
sg13
I0
sg14
F19.908627033233643
sg15
I407
sbsI185
(icore.engine
StatCollection
p752
(dp753
g3
I200
sg4
F15.008989095687866
sg5
F15.254949450492859
sg6
I2
sg7
F30.509898900985718
sg8
F15.25503396987915
sg9
S'OK'
p754
sg11
S'16:37:11'
p755
sg13
I0
sg14
F30.5100679397583
sg15
I814
sbsI186
(icore.engine
StatCollection
p756
(dp757
g3
I200
sg4
F14.208714008331299
sg5
F16.821723461151123
sg6
I2
sg7
F33.643446922302246
sg8
F16.82182002067566
sg9
S'OK'
p758
sg11
S'16:37:11'
p759
sg13
I0
sg14
F33.64364004135132
sg15
I814
sbsI187
(icore.engine
StatCollection
p760
(dp761
g3
I200
sg4
F14.998816013336182
sg5
F16.345239877700806
sg6
I2
sg7
F32.69047975540161
sg8
F16.345339059829712
sg9
S'OK'
p762
sg11
S'16:37:11'
p763
sg13
I0
sg14
F32.690678119659424
sg15
I814
sbsI188
(icore.engine
StatCollection
p764
(dp765
g3
I200
sg4
F14.753974914550781
sg5
F16.69768452644348
sg6
I2
sg7
F33.39536905288696
sg8
F16.69776201248169
sg9
S'OK'
p766
sg11
S'16:37:11'
p767
sg13
I0
sg14
F33.39552402496338
sg15
I814
sbsI189
(icore.engine
StatCollection
p768
(dp769
g3
I200
sg4
F12.817140102386475
sg5
F15.730521440505981
sg6
I2
sg7
F31.461042881011963
sg8
F15.730602502822876
sg9
S'OK'
p770
sg11
S'16:37:11'
p771
sg13
I0
sg14
F31.461205005645752
sg15
I814
sbsI190
(icore.engine
StatCollection
p772
(dp773
g3
I200
sg4
F13.077422857284546
sg5
F16.25471293926239
sg6
I2
sg7
F32.50942587852478
sg8
F16.25477933883667
sg9
S'OK'
p774
sg11
S'16:37:11'
p775
sg13
I0
sg14
F32.50955867767334
sg15
I814
sbsI191
(icore.engine
StatCollection
p776
(dp777
g3
I200
sg4
F15.44115400314331
sg5
F16.781166434288025
sg6
I2
sg7
F33.56233286857605
sg8
F16.781259536743164
sg9
S'OK'
p778
sg11
S'16:37:11'
p779
sg13
I0
sg14
F33.56251907348633
sg15
I814
sbsI192
(icore.engine
StatCollection
p780
(dp781
g3
I200
sg4
F11.859321117401123
sg5
F14.123353004455566
sg6
I2
sg7
F28.246706008911133
sg8
F14.123425483703613
sg9
S'OK'
p782
sg11
S'16:37:11'
p783
sg13
I0
sg14
F28.246850967407227
sg15
I814
sbsI193
(icore.engine
StatCollection
p784
(dp785
g3
I200
sg4
F15.115855932235718
sg5
F16.874078512191772
sg6
I2
sg7
F33.748157024383545
sg8
F16.874143481254578
sg9
S'OK'
p786
sg11
S'16:37:11'
p787
sg13
I0
sg14
F33.748286962509155
sg15
I814
sbsI194
(icore.engine
StatCollection
p788
(dp789
g3
I200
sg4
F14.709971189498901
sg5
F15.251478433609009
sg6
I2
sg7
F30.502956867218018
sg8
F15.251544117927551
sg9
S'OK'
p790
sg11
S'16:37:11'
p791
sg13
I0
sg14
F30.503088235855103
sg15
I814
sbsI195
(icore.engine
StatCollection
p792
(dp793
g3
I200
sg4
F13.629970073699951
sg5
F16.134477019309998
sg6
I2
sg7
F32.268954038619995
sg8
F16.13454759120941
sg9
S'OK'
p794
sg11
S'16:37:11'
p795
sg13
I0
sg14
F32.26909518241882
sg15
I814
sbsI196
(icore.engine
StatCollection
p796
(dp797
g3
I200
sg4
F12.585571050643921
sg5
F15.358601927757263
sg6
I2
sg7
F30.717203855514526
sg8
F15.358677983283997
sg9
S'OK'
p798
sg11
S'16:37:11'
p799
sg13
I0
sg14
F30.717355966567993
sg15
I814
sbsI197
(icore.engine
StatCollection
p800
(dp801
g3
I200
sg4
F12.823221921920776
sg5
F15.85017704963684
sg6
I2
sg7
F31.70035409927368
sg8
F15.850276470184326
sg9
S'OK'
p802
sg11
S'16:37:11'
p803
sg13
I0
sg14
F31.700552940368652
sg15
I814
sbsI198
(icore.engine
StatCollection
p804
(dp805
g3
I200
sg4
F15.075537204742432
sg5
F16.819432497024536
sg6
I2
sg7
F33.63886499404907
sg8
F16.819541573524475
sg9
S'OK'
p806
sg11
S'16:37:11'
p807
sg13
I0
sg14
F33.63908314704895
sg15
I814
sbsI199
(icore.engine
StatCollection
p808
(dp809
g3
I200
sg4
F13.605479955673218
sg5
F15.83530056476593
sg6
I2
sg7
F31.67060112953186
sg8
F15.835371494293213
sg9
S'OK'
p810
sg11
S'16:37:11'
p811
sg13
I0
sg14
F31.670742988586426
sg15
I814
sbsI200
(icore.engine
StatCollection
p812
(dp813
g3
I200
sg4
F14.388684034347534
sg5
F16.621989130973816
sg6
I2
sg7
F33.24397826194763
sg8
F16.62206256389618
sg9
S'OK'
p814
sg11
S'16:37:11'
p815
sg13
I0
sg14
F33.24412512779236
sg15
I814
sbsI201
(icore.engine
StatCollection
p816
(dp817
g3
I200
sg4
F13.585083961486816
sg5
F16.083548426628113
sg6
I2
sg7
F32.167096853256226
sg8
F16.083656430244446
sg9
S'OK'
p818
sg11
S'16:37:11'
p819
sg13
I0
sg14
F32.16731286048889
sg15
I814
sbsI202
(icore.engine
StatCollection
p820
(dp821
g3
I200
sg4
F19.797662019729614
sg5
F19.79756808280945
sg6
I1
sg7
F19.79756808280945
sg8
F19.797662019729614
sg9
S'OK'
p822
sg11
S'16:37:11'
p823
sg13
I0
sg14
F19.797662019729614
sg15
I407
sbsI203
(icore.engine
StatCollection
p824
(dp825
g3
I200
sg4
F9.775566816329956
sg5
F12.142377972602844
sg6
I2
sg7
F24.28475594520569
sg8
F12.142489910125732
sg9
S'OK'
p826
sg11
S'16:37:11'
p827
sg13
I0
sg14
F24.284979820251465
sg15
I814
sbsI204
(icore.engine
StatCollection
p828
(dp829
g3
I200
sg4
F13.656403064727783
sg5
F16.52959656715393
sg6
I2
sg7
F33.05919313430786
sg8
F16.529675602912903
sg9
S'OK'
p830
sg11
S'16:37:11'
p831
sg13
I0
sg14
F33.059351205825806
sg15
I814
sbsI205
(icore.engine
StatCollection
p832
(dp833
g3
I200
sg4
F14.296695947647095
sg5
F16.578306078910828
sg6
I2
sg7
F33.156612157821655
sg8
F16.578364491462708
sg9
S'OK'
p834
sg11
S'16:37:11'
p835
sg13
I0
sg14
F33.156728982925415
sg15
I814
sbsI206
(icore.engine
StatCollection
p836
(dp837
g3
I200
sg4
F15.372942209243774
sg5
F14.500243186950684
sg6
I2
sg7
F29.000486373901367
sg8
F14.500311613082886
sg9
S'OK'
p838
sg11
S'16:37:11'
p839
sg13
I0
sg14
F29.00062322616577
sg15
I814
sbsI207
(icore.engine
StatCollection
p840
(dp841
g3
I200
sg4
F14.917760133743286
sg5
F16.745690941810608
sg6
I2
sg7
F33.491381883621216
sg8
F16.745757460594177
sg9
S'OK'
p842
sg11
S'16:37:11'
p843
sg13
I0
sg14
F33.491514921188354
sg15
I814
sbsI208
(icore.engine
StatCollection
p844
(dp845
g3
I200
sg4
F14.344910860061646
sg5
F16.67432940006256
sg6
I2
sg7
F33.34865880012512
sg8
F16.67440402507782
sg9
S'OK'
p846
sg11
S'16:37:11'
p847
sg13
I0
sg14
F33.34880805015564
sg15
I814
sbsI209
(icore.engine
StatCollection
p848
(dp849
g3
I200
sg4
F14.638529062271118
sg5
F16.747928500175476
sg6
I2
sg7
F33.49585700035095
sg8
F16.74800407886505
sg9
S'OK'
p850
sg11
S'16:37:11'
p851
sg13
I0
sg14
F33.4960081577301
sg15
I814
sbsI210
(icore.engine
StatCollection
p852
(dp853
g3
I200
sg4
F14.36146593093872
sg5
F16.08202350139618
sg6
I2
sg7
F32.16404700279236
sg8
F16.08210003376007
sg9
S'OK'
p854
sg11
S'16:37:11'
p855
sg13
I0
sg14
F32.16420006752014
sg15
I814
sbsI211
(icore.engine
StatCollection
p856
(dp857
g3
I200
sg4
F11.371279001235962
sg5
F13.090721607208252
sg6
I2
sg7
F26.181443214416504
sg8
F13.09078299999237
sg9
S'OK'
p858
sg11
S'16:37:11'
p859
sg13
I0
sg14
F26.18156599998474
sg15
I814
sbsI212
(icore.engine
StatCollection
p860
(dp861
g3
I200
sg4
F14.850051164627075
sg5
F16.849043011665344
sg6
I2
sg7
F33.69808602333069
sg8
F16.84911859035492
sg9
S'OK'
p862
sg11
S'16:37:11'
p863
sg13
I0
sg14
F33.69823718070984
sg15
I814
sbsI213
(icore.engine
StatCollection
p864
(dp865
g3
I200
sg4
F15.84180998802185
sg5
F15.504312515258789
sg6
I2
sg7
F31.008625030517578
sg8
F15.504506468772888
sg9
S'OK'
p866
sg11
S'16:37:11'
p867
sg13
I0
sg14
F31.009012937545776
sg15
I814
sbsI214
(icore.engine
StatCollection
p868
(dp869
g3
I200
sg4
F13.985953092575073
sg5
F16.282589077949524
sg6
I2
sg7
F32.56517815589905
sg8
F16.28267002105713
sg9
S'OK'
p870
sg11
S'16:37:11'
p871
sg13
I0
sg14
F32.56534004211426
sg15
I814
sbsI215
(icore.engine
StatCollection
p872
(dp873
g3
I200
sg4
F14.380997896194458
sg5
F16.262004494667053
sg6
I2
sg7
F32.524008989334106
sg8
F16.262064456939697
sg9
S'OK'
p874
sg11
S'16:37:11'
p875
sg13
I0
sg14
F32.524128913879395
sg15
I814
sbsI216
(icore.engine
StatCollection
p876
(dp877
g3
I200
sg4
F13.00422191619873
sg5
F15.779193043708801
sg6
I2
sg7
F31.558386087417603
sg8
F15.77928638458252
sg9
S'OK'
p878
sg11
S'16:37:11'
p879
sg13
I0
sg14
F31.55857276916504
sg15
I814
sbsI217
(icore.engine
StatCollection
p880
(dp881
g3
I200
sg4
F14.735082864761353
sg5
F16.64940655231476
sg6
I2
sg7
F33.29881310462952
sg8
F16.649463534355164
sg9
S'OK'
p882
sg11
S'16:37:11'
p883
sg13
I0
sg14
F33.29892706871033
sg15
I814
sbsI218
(icore.engine
StatCollection
p884
(dp885
g3
I200
sg4
F14.950670957565308
sg5
F16.17214798927307
sg6
I2
sg7
F32.34429597854614
sg8
F16.17221748828888
sg9
S'OK'
p886
sg11
S'16:37:11'
p887
sg13
I0
sg14
F32.34443497657776
sg15
I814
sbsI219
(icore.engine
StatCollection
p888
(dp889
g3
I200
sg4
F15.053167819976807
sg5
F15.994991421699524
sg6
I2
sg7
F31.989982843399048
sg8
F15.995076417922974
sg9
S'OK'
p890
sg11
S'16:37:11'
p891
sg13
I0
sg14
F31.990152835845947
sg15
I814
sbsI220
(icore.engine
StatCollection
p892
(dp893
g3
I200
sg4
F14.78724193572998
sg5
F16.82562744617462
sg6
I2
sg7
F33.65125489234924
sg8
F16.825698971748352
sg9
S'OK'
p894
sg11
S'16:37:11'
p895
sg13
I0
sg14
F33.651397943496704
sg15
I814
sbsI221
(icore.engine
StatCollection
p896
(dp897
g3
I200
sg4
F15.381372928619385
sg5
F15.986339569091797
sg6
I2
sg7
F31.972679138183594
sg8
F15.986407995223999
sg9
S'OK'
p898
sg11
S'16:37:11'
p899
sg13
I0
sg14
F31.972815990447998
sg15
I814
sbsI222
(icore.engine
StatCollection
p900
(dp901
g3
I200
sg4
F14.838744878768921
sg5
F16.69500195980072
sg6
I2
sg7
F33.39000391960144
sg8
F16.695085406303406
sg9
S'OK'
p902
sg11
S'16:37:11'
p903
sg13
I0
sg14
F33.39017081260681
sg15
I814
sbsI223
(icore.engine
StatCollection
p904
(dp905
g3
I200
sg4
F14.695110082626343
sg5
F14.423825025558472
sg6
I2
sg7
F28.847650051116943
sg8
F14.42390751838684
sg9
S'OK'
p906
sg11
S'16:37:11'
p907
sg13
I0
sg14
F28.84781503677368
sg15
I814
sbsI224
(icore.engine
StatCollection
p908
(dp909
g3
I200
sg4
F13.14883279800415
sg5
F14.907084941864014
sg6
I2
sg7
F29.814169883728027
sg8
F14.907150387763977
sg9
S'OK'
p910
sg11
S'16:37:11'
p911
sg13
I0
sg14
F29.814300775527954
sg15
I814
sbsI225
(icore.engine
StatCollection
p912
(dp913
g3
I200
sg4
F19.80626606941223
sg5
F19.80618405342102
sg6
I1
sg7
F19.80618405342102
sg8
F19.80626606941223
sg9
S'OK'
p914
sg11
S'16:37:11'
p915
sg13
I0
sg14
F19.80626606941223
sg15
I407
sbsI226
(icore.engine
StatCollection
p916
(dp917
g3
I200
sg4
F13.957702159881592
sg5
F16.387036561965942
sg6
I2
sg7
F32.774073123931885
sg8
F16.387115120887756
sg9
S'OK'
p918
sg11
S'16:37:11'
p919
sg13
I0
sg14
F32.77423024177551
sg15
I814
sbsI227
(icore.engine
StatCollection
p920
(dp921
g3
I200
sg4
F14.092790126800537
sg5
F16.341437101364136
sg6
I2
sg7
F32.68287420272827
sg8
F16.341506123542786
sg9
S'OK'
p922
sg11
S'16:37:11'
p923
sg13
I0
sg14
F32.68301224708557
sg15
I814
sbsI228
(icore.engine
StatCollection
p924
(dp925
g3
I200
sg4
F14.267575979232788
sg5
F16.85149049758911
sg6
I2
sg7
F33.70298099517822
sg8
F16.851550459861755
sg9
S'OK'
p926
sg11
S'16:37:11'
p927
sg13
I0
sg14
F33.70310091972351
sg15
I814
sbsI229
(icore.engine
StatCollection
p928
(dp929
g3
I200
sg4
F14.235944986343384
sg5
F16.82218039035797
sg6
I2
sg7
F33.64436078071594
sg8
F16.82225751876831
sg9
S'OK'
p930
sg11
S'16:37:11'
p931
sg13
I0
sg14
F33.64451503753662
sg15
I814
sbsI230
(icore.engine
StatCollection
p932
(dp933
g3
I200
sg4
F14.447674036026001
sg5
F16.251323461532593
sg6
I2
sg7
F32.502646923065186
sg8
F16.25142240524292
sg9
S'OK'
p934
sg11
S'16:37:11'
p935
sg13
I0
sg14
F32.50284481048584
sg15
I814
sbsI231
(icore.engine
StatCollection
p936
(dp937
g3
I200
sg4
F14.941675901412964
sg5
F16.739537000656128
sg6
I2
sg7
F33.479074001312256
sg8
F16.739604473114014
sg9
S'OK'
p938
sg11
S'16:37:11'
p939
sg13
I0
sg14
F33.47920894622803
sg15
I814
sbsI232
(icore.engine
StatCollection
p940
(dp941
g3
I200
sg4
F14.500143051147461
sg5
F16.663172602653503
sg6
I2
sg7
F33.32634520530701
sg8
F16.66328454017639
sg9
S'OK'
p942
sg11
S'16:37:11'
p943
sg13
I0
sg14
F33.32656908035278
sg15
I814
sbsI233
(icore.engine
StatCollection
p944
(dp945
g3
I200
sg4
F13.944828033447266
sg5
F16.657883048057556
sg6
I2
sg7
F33.31576609611511
sg8
F16.65795409679413
sg9
S'OK'
p946
sg11
S'16:37:11'
p947
sg13
I0
sg14
F33.31590819358826
sg15
I814
sbsI234
(icore.engine
StatCollection
p948
(dp949
g3
I200
sg4
F14.092525005340576
sg5
F16.33369505405426
sg6
I2
sg7
F32.66739010810852
sg8
F16.33376944065094
sg9
S'OK'
p950
sg11
S'16:37:11'
p951
sg13
I0
sg14
F32.66753888130188
sg15
I814
sbsI235
(icore.engine
StatCollection
p952
(dp953
g3
I200
sg4
F13.561811923980713
sg5
F16.503939390182495
sg6
I2
sg7
F33.00787878036499
sg8
F16.504021406173706
sg9
S'OK'
p954
sg11
S'16:37:11'
p955
sg13
I0
sg14
F33.00804281234741
sg15
I814
sbsI236
(icore.engine
StatCollection
p956
(dp957
g3
I200
sg4
F14.686598062515259
sg5
F16.738729000091553
sg6
I2
sg7
F33.477458000183105
sg8
F16.73878800868988
sg9
S'OK'
p958
sg11
S'16:37:11'
p959
sg13
I0
sg14
F33.47757601737976
sg15
I814
sbsI237
(icore.engine
StatCollection
p960
(dp961
g3
I200
sg4
F19.796808004379272
sg5
F19.796737909317017
sg6
I1
sg7
F19.796737909317017
sg8
F19.796808004379272
sg9
S'OK'
p962
sg11
S'16:37:11'
p963
sg13
I0
sg14
F19.796808004379272
sg15
I407
sbsI238
(icore.engine
StatCollection
p964
(dp965
g3
I200
sg4
F14.321161985397339
sg5
F16.8390109539032
sg6
I2
sg7
F33.6780219078064
sg8
F16.839084029197693
sg9
S'OK'
p966
sg11
S'16:37:11'
p967
sg13
I0
sg14
F33.678168058395386
sg15
I814
sbsI239
(icore.engine
StatCollection
p968
(dp969
g3
I200
sg4
F14.353172063827515
sg5
F16.84337043762207
sg6
I2
sg7
F33.68674087524414
sg8
F16.84344446659088
sg9
S'OK'
p970
sg11
S'16:37:11'
p971
sg13
I0
sg14
F33.68688893318176
sg15
I814
sbsI240
(icore.engine
StatCollection
p972
(dp973
g3
I200
sg4
F14.337101936340332
sg5
F16.8765310049057
sg6
I2
sg7
F33.7530620098114
sg8
F16.87658989429474
sg9
S'OK'
p974
sg11
S'16:37:11'
p975
sg13
I0
sg14
F33.75317978858948
sg15
I814
sbsI241
(icore.engine
StatCollection
p976
(dp977
g3
I200
sg4
F13.555652856826782
sg5
F16.06071138381958
sg6
I2
sg7
F32.12142276763916
sg8
F16.06079137325287
sg9
S'OK'
p978
sg11
S'16:37:11'
p979
sg13
I0
sg14
F32.12158274650574
sg15
I814
sbsI242
(icore.engine
StatCollection
p980
(dp981
g3
I200
sg4
F14.349823951721191
sg5
F16.581236958503723
sg6
I2
sg7
F33.162473917007446
sg8
F16.58131754398346
sg9
S'OK'
p982
sg11
S'16:37:11'
p983
sg13
I0
sg14
F33.16263508796692
sg15
I814
sbsI243
(icore.engine
StatCollection
p984
(dp985
g3
I200
sg4
F14.068763971328735
sg5
F16.319327473640442
sg6
I2
sg7
F32.638654947280884
sg8
F16.319401025772095
sg9
S'OK'
p986
sg11
S'16:37:11'
p987
sg13
I0
sg14
F32.63880205154419
sg15
I814
sbsI244
(icore.engine
StatCollection
p988
(dp989
g3
I200
sg4
F15.991137027740479
sg5
F15.73425555229187
sg6
I2
sg7
F31.46851110458374
sg8
F15.734325528144836
sg9
S'OK'
p990
sg11
S'16:37:11'
p991
sg13
I0
sg14
F31.468651056289673
sg15
I814
sbsI245
(icore.engine
StatCollection
p992
(dp993
g3
I200
sg4
F13.360835075378418
sg5
F15.711730360984802
sg6
I2
sg7
F31.423460721969604
sg8
F15.711814522743225
sg9
S'OK'
p994
sg11
S'16:37:11'
p995
sg13
I0
sg14
F31.42362904548645
sg15
I814
sbsI246
(icore.engine
StatCollection
p996
(dp997
g3
I200
sg4
F14.430848121643066
sg5
F16.849555611610413
sg6
I2
sg7
F33.699111223220825
sg8
F16.849655628204346
sg9
S'OK'
p998
sg11
S'16:37:11'
p999
sg13
I0
sg14
F33.69931125640869
sg15
I814
sbsI247
(icore.engine
StatCollection
p1000
(dp1001
g3
I200
sg4
F14.477999925613403
sg5
F16.566622972488403
sg6
I2
sg7
F33.13324594497681
sg8
F16.566709876060486
sg9
S'OK'
p1002
sg11
S'16:37:11'
p1003
sg13
I0
sg14
F33.13341975212097
sg15
I814
sbsI248
(icore.engine
StatCollection
p1004
(dp1005
g3
I200
sg4
F14.10165286064148
sg5
F16.450273394584656
sg6
I2
sg7
F32.90054678916931
sg8
F16.45033288002014
sg9
S'OK'
p1006
sg11
S'16:37:11'
p1007
sg13
I0
sg14
F32.90066576004028
sg15
I814
sbsI249
(icore.engine
StatCollection
p1008
(dp1009
g3
I200
sg4
F14.029392957687378
sg5
F16.357767939567566
sg6
I2
sg7
F32.71553587913513
sg8
F16.35784649848938
sg9
S'OK'
p1010
sg11
S'16:37:11'
p1011
sg13
I0
sg14
F32.71569299697876
sg15
I814
sbsI250
(icore.engine
StatCollection
p1012
(dp1013
g3
I200
sg4
F19.744521856307983
sg5
F19.7444429397583
sg6
I1
sg7
F19.7444429397583
sg8
F19.744521856307983
sg9
S'OK'
p1014
sg11
S'16:37:11'
p1015
sg13
I0
sg14
F19.744521856307983
sg15
I407
sbsI251
(icore.engine
StatCollection
p1016
(dp1017
g3
I200
sg4
F14.936285972595215
sg5
F16.822446942329407
sg6
I2
sg7
F33.64489388465881
sg8
F16.82251751422882
sg9
S'OK'
p1018
sg11
S'16:37:11'
p1019
sg13
I0
sg14
F33.64503502845764
sg15
I814
sbsI252
(icore.engine
StatCollection
p1020
(dp1021
g3
I200
sg4
F14.571326971054077
sg5
F16.78938591480255
sg6
I2
sg7
F33.5787718296051
sg8
F16.78946089744568
sg9
S'OK'
p1022
sg11
S'16:37:11'
p1023
sg13
I0
sg14
F33.57892179489136
sg15
I814
sbsI253
(icore.engine
StatCollection
p1024
(dp1025
g3
I200
sg4
F14.598552942276001
sg5
F16.68803596496582
sg6
I2
sg7
F33.37607192993164
sg8
F16.688151001930237
sg9
S'OK'
p1026
sg11
S'16:37:11'
p1027
sg13
I0
sg14
F33.376302003860474
sg15
I814
sbsI254
(icore.engine
StatCollection
p1028
(dp1029
g3
I200
sg4
F13.608595132827759
sg5
F15.240784406661987
sg6
I2
sg7
F30.481568813323975
sg8
F15.24086606502533
sg9
S'OK'
p1030
sg11
S'16:37:11'
p1031
sg13
I0
sg14
F30.48173213005066
sg15
I814
sbsI255
(icore.engine
StatCollection
p1032
(dp1033
g3
I200
sg4
F13.190961837768555
sg5
F14.739528059959412
sg6
I2
sg7
F29.479056119918823
sg8
F14.739607453346252
sg9
S'OK'
p1034
sg11
S'16:37:11'
p1035
sg13
I0
sg14
F29.479214906692505
sg15
I814
sbsI256
(icore.engine
StatCollection
p1036
(dp1037
g3
I200
sg4
F15.576061010360718
sg5
F14.963389992713928
sg6
I2
sg7
F29.926779985427856
sg8
F14.96348249912262
sg9
S'OK'
p1038
sg11
S'16:37:11'
p1039
sg13
I0
sg14
F29.92696499824524
sg15
I814
sbsI257
(icore.engine
StatCollection
p1040
(dp1041
g3
I200
sg4
F20.468589067459106
sg5
F20.468505859375
sg6
I1
sg7
F20.468505859375
sg8
F20.468589067459106
sg9
S'OK'
p1042
sg11
S'16:37:11'
p1043
sg13
I0
sg14
F20.468589067459106
sg15
I407
sbsI258
(icore.engine
StatCollection
p1044
(dp1045
g3
I200
sg4
F10.893203973770142
sg5
F14.118736386299133
sg6
I2
sg7
F28.237472772598267
sg8
F14.118831872940063
sg9
S'OK'
p1046
sg11
S'16:37:11'
p1047
sg13
I0
sg14
F28.237663745880127
sg15
I814
sbsI259
(icore.engine
StatCollection
p1048
(dp1049
g3
I200
sg4
F13.734815120697021
sg5
F16.644963026046753
sg6
I2
sg7
F33.289926052093506
sg8
F16.64504909515381
sg9
S'OK'
p1050
sg11
S'16:37:11'
p1051
sg13
I0
sg14
F33.29009819030762
sg15
I814
sbsI260
(icore.engine
StatCollection
p1052
(dp1053
g3
I200
sg4
F19.803097009658813
sg5
F19.80304217338562
sg6
I1
sg7
F19.80304217338562
sg8
F19.803097009658813
sg9
S'OK'
p1054
sg11
S'16:37:11'
p1055
sg13
I0
sg14
F19.803097009658813
sg15
I407
sbsI261
(icore.engine
StatCollection
p1056
(dp1057
g3
I200
sg4
F13.469664096832275
sg5
F15.987765073776245
sg6
I2
sg7
F31.97553014755249
sg8
F15.987822532653809
sg9
S'OK'
p1058
sg11
S'16:37:11'
p1059
sg13
I0
sg14
F31.975645065307617
sg15
I814
sbsI262
(icore.engine
StatCollection
p1060
(dp1061
g3
I200
sg4
F13.290059089660645
sg5
F15.911733508110046
sg6
I2
sg7
F31.823467016220093
sg8
F15.91181206703186
sg9
S'OK'
p1062
sg11
S'16:37:11'
p1063
sg13
I0
sg14
F31.82362413406372
sg15
I814
sbsI263
(icore.engine
StatCollection
p1064
(dp1065
g3
I200
sg4
F14.414520978927612
sg5
F16.591902017593384
sg6
I2
sg7
F33.18380403518677
sg8
F16.591959476470947
sg9
S'OK'
p1066
sg11
S'16:37:11'
p1067
sg13
I0
sg14
F33.183918952941895
sg15
I814
sbsI264
(icore.engine
StatCollection
p1068
(dp1069
g3
I200
sg4
F13.287375926971436
sg5
F16.03221595287323
sg6
I2
sg7
F32.06443190574646
sg8
F16.03228998184204
sg9
S'OK'
p1070
sg11
S'16:37:11'
p1071
sg13
I0
sg14
F32.06457996368408
sg15
I814
sbsI265
(icore.engine
StatCollection
p1072
(dp1073
g3
I200
sg4
F13.960462093353271
sg5
F16.668309092521667
sg6
I2
sg7
F33.336618185043335
sg8
F16.6683851480484
sg9
S'OK'
p1074
sg11
S'16:37:11'
p1075
sg13
I0
sg14
F33.3367702960968
sg15
I814
sbsI266
(icore.engine
StatCollection
p1076
(dp1077
g3
I200
sg4
F14.260621070861816
sg5
F16.781131505966187
sg6
I2
sg7
F33.56226301193237
sg8
F16.781203031539917
sg9
S'OK'
p1078
sg11
S'16:37:11'
p1079
sg13
I0
sg14
F33.562406063079834
sg15
I814
sbsI267
(icore.engine
StatCollection
p1080
(dp1081
g3
I200
sg4
F14.551920890808105
sg5
F16.543034076690674
sg6
I2
sg7
F33.08606815338135
sg8
F16.543105483055115
sg9
S'OK'
p1082
sg11
S'16:37:11'
p1083
sg13
I0
sg14
F33.08621096611023
sg15
I814
sbsI268
(icore.engine
StatCollection
p1084
(dp1085
g3
I200
sg4
F15.107147216796875
sg5
F14.745586514472961
sg6
I2
sg7
F29.491173028945923
sg8
F14.745668530464172
sg9
S'OK'
p1086
sg11
S'16:37:11'
p1087
sg13
I0
sg14
F29.491337060928345
sg15
I814
sbsI269
(icore.engine
StatCollection
p1088
(dp1089
g3
I200
sg4
F15.018115043640137
sg5
F16.820270538330078
sg6
I2
sg7
F33.640541076660156
sg8
F16.82036602497101
sg9
S'OK'
p1090
sg11
S'16:37:11'
p1091
sg13
I0
sg14
F33.64073204994202
sg15
I814
sbsI270
(icore.engine
StatCollection
p1092
(dp1093
g3
I200
sg4
F14.56688904762268
sg5
F16.69250452518463
sg6
I2
sg7
F33.38500905036926
sg8
F16.692591547966003
sg9
S'OK'
p1094
sg11
S'16:37:11'
p1095
sg13
I0
sg14
F33.38518309593201
sg15
I814
sbsI271
(icore.engine
StatCollection
p1096
(dp1097
g3
I200
sg4
F15.003504991531372
sg5
F16.534716963768005
sg6
I2
sg7
F33.06943392753601
sg8
F16.53478705883026
sg9
S'OK'
p1098
sg11
S'16:37:11'
p1099
sg13
I0
sg14
F33.06957411766052
sg15
I814
sbsI272
(icore.engine
StatCollection
p1100
(dp1101
g3
I200
sg4
F13.968419075012207
sg5
F16.29676043987274
sg6
I2
sg7
F32.59352087974548
sg8
F16.296854496002197
sg9
S'OK'
p1102
sg11
S'16:37:11'
p1103
sg13
I0
sg14
F32.593708992004395
sg15
I814
sbsI273
(icore.engine
StatCollection
p1104
(dp1105
g3
I200
sg4
F14.553085088729858
sg5
F15.147356510162354
sg6
I2
sg7
F30.294713020324707
sg8
F15.147423028945923
sg9
S'OK'
p1106
sg11
S'16:37:11'
p1107
sg13
I0
sg14
F30.294846057891846
sg15
I814
sbsI274
(icore.engine
StatCollection
p1108
(dp1109
g3
I200
sg4
F13.355865955352783
sg5
F14.319550514221191
sg6
I2
sg7
F28.639101028442383
sg8
F14.319615006446838
sg9
S'OK'
p1110
sg11
S'16:37:11'
p1111
sg13
I0
sg14
F28.639230012893677
sg15
I814
sbsI275
(icore.engine
StatCollection
p1112
(dp1113
g3
I200
sg4
F15.560587882995605
sg5
F15.876466035842896
sg6
I2
sg7
F31.75293207168579
sg8
F15.876571536064148
sg9
S'OK'
p1114
sg11
S'16:37:11'
p1115
sg13
I0
sg14
F31.753143072128296
sg15
I814
sbsI276
(icore.engine
StatCollection
p1116
(dp1117
g3
I200
sg4
F19.685853004455566
sg5
F19.685781002044678
sg6
I1
sg7
F19.685781002044678
sg8
F19.685853004455566
sg9
S'OK'
p1118
sg11
S'16:37:11'
p1119
sg13
I0
sg14
F19.685853004455566
sg15
I407
sbsI277
(icore.engine
StatCollection
p1120
(dp1121
g3
I200
sg4
F14.77671504020691
sg5
F15.784648537635803
sg6
I2
sg7
F31.569297075271606
sg8
F15.784741997718811
sg9
S'OK'
p1122
sg11
S'16:37:11'
p1123
sg13
I0
sg14
F31.569483995437622
sg15
I814
sbsI278
(icore.engine
StatCollection
p1124
(dp1125
g3
I200
sg4
F19.782011032104492
sg5
F19.78196406364441
sg6
I1
sg7
F19.78196406364441
sg8
F19.782011032104492
sg9
S'OK'
p1126
sg11
S'16:37:11'
p1127
sg13
I0
sg14
F19.782011032104492
sg15
I407
sbsI279
(icore.engine
StatCollection
p1128
(dp1129
g3
I200
sg4
F19.7328519821167
sg5
F19.73276400566101
sg6
I1
sg7
F19.73276400566101
sg8
F19.7328519821167
sg9
S'OK'
p1130
sg11
S'16:37:11'
p1131
sg13
I0
sg14
F19.7328519821167
sg15
I407
sbsI280
(icore.engine
StatCollection
p1132
(dp1133
g3
I200
sg4
F12.772276878356934
sg5
F15.759974360466003
sg6
I2
sg7
F31.519948720932007
sg8
F15.760054349899292
sg9
S'OK'
p1134
sg11
S'16:37:11'
p1135
sg13
I0
sg14
F31.520108699798584
sg15
I814
sbsI281
(icore.engine
StatCollection
p1136
(dp1137
g3
I200
sg4
F11.60914921760559
sg5
F13.313405513763428
sg6
I2
sg7
F26.626811027526855
sg8
F13.313499569892883
sg9
S'OK'
p1138
sg11
S'16:37:11'
p1139
sg13
I0
sg14
F26.626999139785767
sg15
I814
sbsI282
(icore.engine
StatCollection
p1140
(dp1141
g3
I200
sg4
F12.834197044372559
sg5
F15.829222559928894
sg6
I2
sg7
F31.658445119857788
sg8
F15.829295039176941
sg9
S'OK'
p1142
sg11
S'16:37:11'
p1143
sg13
I0
sg14
F31.658590078353882
sg15
I814
sbsI283
(icore.engine
StatCollection
p1144
(dp1145
g3
I200
sg4
F14.040518999099731
sg5
F16.699196100234985
sg6
I2
sg7
F33.39839220046997
sg8
F16.699268579483032
sg9
S'OK'
p1146
sg11
S'16:37:11'
p1147
sg13
I0
sg14
F33.398537158966064
sg15
I814
sbsI284
(icore.engine
StatCollection
p1148
(dp1149
g3
I200
sg4
F15.516137838363647
sg5
F16.091153025627136
sg6
I2
sg7
F32.18230605125427
sg8
F16.09123694896698
sg9
S'OK'
p1150
sg11
S'16:37:11'
p1151
sg13
I0
sg14
F32.18247389793396
sg15
I814
sbsI285
(icore.engine
StatCollection
p1152
(dp1153
g3
I200
sg4
F14.27445101737976
sg5
F16.826786041259766
sg6
I2
sg7
F33.65357208251953
sg8
F16.826852440834045
sg9
S'OK'
p1154
sg11
S'16:37:11'
p1155
sg13
I0
sg14
F33.65370488166809
sg15
I814
sbsI286
(icore.engine
StatCollection
p1156
(dp1157
g3
I200
sg4
F11.70429015159607
sg5
F14.261945486068726
sg6
I2
sg7
F28.52389097213745
sg8
F14.262012004852295
sg9
S'OK'
p1158
sg11
S'16:37:11'
p1159
sg13
I0
sg14
F28.52402400970459
sg15
I814
sbsI287
(icore.engine
StatCollection
p1160
(dp1161
g3
I200
sg4
F19.76358699798584
sg5
F19.763486862182617
sg6
I1
sg7
F19.763486862182617
sg8
F19.76358699798584
sg9
S'OK'
p1162
sg11
S'16:37:11'
p1163
sg13
I0
sg14
F19.76358699798584
sg15
I407
sbsI288
(icore.engine
StatCollection
p1164
(dp1165
g3
I200
sg4
F13.824226140975952
sg5
F16.160844087600708
sg6
I2
sg7
F32.321688175201416
sg8
F16.160897970199585
sg9
S'OK'
p1166
sg11
S'16:37:11'
p1167
sg13
I0
sg14
F32.32179594039917
sg15
I814
sbsI289
(icore.engine
StatCollection
p1168
(dp1169
g3
I200
sg4
F15.442767858505249
sg5
F16.366421937942505
sg6
I2
sg7
F32.73284387588501
sg8
F16.366498351097107
sg9
S'OK'
p1170
sg11
S'16:37:11'
p1171
sg13
I0
sg14
F32.732996702194214
sg15
I814
sbsI290
(icore.engine
StatCollection
p1172
(dp1173
g3
I200
sg4
F13.69523000717163
sg5
F15.834014892578125
sg6
I2
sg7
F31.66802978515625
sg8
F15.834093928337097
sg9
S'OK'
p1174
sg11
S'16:37:11'
p1175
sg13
I0
sg14
F31.668187856674194
sg15
I814
sbsI291
(icore.engine
StatCollection
p1176
(dp1177
g3
I200
sg4
F15.020439863204956
sg5
F16.72005546092987
sg6
I2
sg7
F33.44011092185974
sg8
F16.720120429992676
sg9
S'OK'
p1178
sg11
S'16:37:11'
p1179
sg13
I0
sg14
F33.44024085998535
sg15
I814
sbsI292
(icore.engine
StatCollection
p1180
(dp1181
g3
I200
sg4
F14.49438190460205
sg5
F16.619858980178833
sg6
I2
sg7
F33.239717960357666
sg8
F16.619937419891357
sg9
S'OK'
p1182
sg11
S'16:37:11'
p1183
sg13
I0
sg14
F33.239874839782715
sg15
I814
sbsI293
(icore.engine
StatCollection
p1184
(dp1185
g3
I200
sg4
F14.799723148345947
sg5
F16.69971489906311
sg6
I2
sg7
F33.39942979812622
sg8
F16.69978106021881
sg9
S'OK'
p1186
sg11
S'16:37:11'
p1187
sg13
I0
sg14
F33.39956212043762
sg15
I814
sbsI294
(icore.engine
StatCollection
p1188
(dp1189
g3
I200
sg4
F13.189675092697144
sg5
F15.817217469215393
sg6
I2
sg7
F31.634434938430786
sg8
F15.817288517951965
sg9
S'OK'
p1190
sg11
S'16:37:11'
p1191
sg13
I0
sg14
F31.63457703590393
sg15
I814
sbsI295
(icore.engine
StatCollection
p1192
(dp1193
g3
I200
sg4
F20.35222291946411
sg5
F20.35206699371338
sg6
I1
sg7
F20.35206699371338
sg8
F20.35222291946411
sg9
S'OK'
p1194
sg11
S'16:37:11'
p1195
sg13
I0
sg14
F20.35222291946411
sg15
I407
sbsI296
(icore.engine
StatCollection
p1196
(dp1197
g3
I200
sg4
F14.996623039245605
sg5
F16.73173451423645
sg6
I2
sg7
F33.4634690284729
sg8
F16.731811046600342
sg9
S'OK'
p1198
sg11
S'16:37:11'
p1199
sg13
I0
sg14
F33.463622093200684
sg15
I814
sbsI297
(icore.engine
StatCollection
p1200
(dp1201
g3
I200
sg4
F14.540818929672241
sg5
F15.34840452671051
sg6
I2
sg7
F30.69680905342102
sg8
F15.348527431488037
sg9
S'OK'
p1202
sg11
S'16:37:11'
p1203
sg13
I0
sg14
F30.697054862976074
sg15
I814
sbsI298
(icore.engine
StatCollection
p1204
(dp1205
g3
I200
sg4
F14.348866939544678
sg5
F16.811336517333984
sg6
I2
sg7
F33.62267303466797
sg8
F16.81141197681427
sg9
S'OK'
p1206
sg11
S'16:37:11'
p1207
sg13
I0
sg14
F33.62282395362854
sg15
I814
sbsI299
(icore.engine
StatCollection
p1208
(dp1209
g3
I200
sg4
F13.209182977676392
sg5
F14.096118569374084
sg6
I2
sg7
F28.19223713874817
sg8
F14.096176981925964
sg9
S'OK'
p1210
sg11
S'16:37:11'
p1211
sg13
I0
sg14
F28.19235396385193
sg15
I814
sbsI300
(icore.engine
StatCollection
p1212
(dp1213
g3
I200
sg4
F14.71449089050293
sg5
F16.572189927101135
sg6
I2
sg7
F33.14437985420227
sg8
F16.57229793071747
sg9
S'OK'
p1214
sg11
S'16:37:11'
p1215
sg13
I0
sg14
F33.14459586143494
sg15
I814
sbsI301
(icore.engine
StatCollection
p1216
(dp1217
g3
I200
sg4
F14.426402807235718
sg5
F16.576048970222473
sg6
I2
sg7
F33.152097940444946
sg8
F16.576120853424072
sg9
S'OK'
p1218
sg11
S'16:37:11'
p1219
sg13
I0
sg14
F33.152241706848145
sg15
I814
sbsI302
(icore.engine
StatCollection
p1220
(dp1221
g3
I200
sg4
F14.040318012237549
sg5
F16.82664144039154
sg6
I2
sg7
F33.65328288078308
sg8
F16.826709508895874
sg9
S'OK'
p1222
sg11
S'16:37:11'
p1223
sg13
I0
sg14
F33.65341901779175
sg15
I814
sbsI303
(icore.engine
StatCollection
p1224
(dp1225
g3
I200
sg4
F11.929319143295288
sg5
F14.594289064407349
sg6
I2
sg7
F29.188578128814697
sg8
F14.594353675842285
sg9
S'OK'
p1226
sg11
S'16:37:11'
p1227
sg13
I0
sg14
F29.18870735168457
sg15
I814
sbsI304
(icore.engine
StatCollection
p1228
(dp1229
g3
I200
sg4
F16.228529930114746
sg5
F15.083694577217102
sg6
I2
sg7
F30.167389154434204
sg8
F15.083770513534546
sg9
S'OK'
p1230
sg11
S'16:37:11'
p1231
sg13
I0
sg14
F30.167541027069092
sg15
I814
sbsI305
(icore.engine
StatCollection
p1232
(dp1233
g3
I200
sg4
F19.82094097137451
sg5
F19.820828199386597
sg6
I1
sg7
F19.820828199386597
sg8
F19.82094097137451
sg9
S'OK'
p1234
sg11
S'16:37:11'
p1235
sg13
I0
sg14
F19.82094097137451
sg15
I407
sbsI306
(icore.engine
StatCollection
p1236
(dp1237
g3
I200
sg4
F15.177396059036255
sg5
F16.530557513237
sg6
I2
sg7
F33.061115026474
sg8
F16.530629992485046
sg9
S'OK'
p1238
sg11
S'16:37:11'
p1239
sg13
I0
sg14
F33.06125998497009
sg15
I814
sbsI307
(icore.engine
StatCollection
p1240
(dp1241
g3
I200
sg4
F15.177672863006592
sg5
F16.220663905143738
sg6
I2
sg7
F32.441327810287476
sg8
F16.220736026763916
sg9
S'OK'
p1242
sg11
S'16:37:11'
p1243
sg13
I0
sg14
F32.44147205352783
sg15
I814
sbsI308
(icore.engine
StatCollection
p1244
(dp1245
g3
I200
sg4
F20.38486409187317
sg5
F20.384769201278687
sg6
I1
sg7
F20.384769201278687
sg8
F20.38486409187317
sg9
S'OK'
p1246
sg11
S'16:37:11'
p1247
sg13
I0
sg14
F20.38486409187317
sg15
I407
sbsI309
(icore.engine
StatCollection
p1248
(dp1249
g3
I200
sg4
F11.84428596496582
sg5
F14.96384596824646
sg6
I2
sg7
F29.92769193649292
sg8
F14.963940501213074
sg9
S'OK'
p1250
sg11
S'16:37:11'
p1251
sg13
I0
sg14
F29.927881002426147
sg15
I814
sbsI310
(icore.engine
StatCollection
p1252
(dp1253
g3
I200
sg4
F14.766708850860596
sg5
F16.58426535129547
sg6
I2
sg7
F33.16853070259094
sg8
F16.5843403339386
sg9
S'OK'
p1254
sg11
S'16:37:11'
p1255
sg13
I0
sg14
F33.1686806678772
sg15
I814
sbsI311
(icore.engine
StatCollection
p1256
(dp1257
g3
I200
sg4
F20.123857975006104
sg5
F20.123787879943848
sg6
I1
sg7
F20.123787879943848
sg8
F20.123857975006104
sg9
S'OK'
p1258
sg11
S'16:37:11'
p1259
sg13
I0
sg14
F20.123857975006104
sg15
I407
sbsI312
(icore.engine
StatCollection
p1260
(dp1261
g3
I200
sg4
F13.923035860061646
sg5
F16.589035511016846
sg6
I2
sg7
F33.17807102203369
sg8
F16.589125990867615
sg9
S'OK'
p1262
sg11
S'16:37:11'
p1263
sg13
I0
sg14
F33.17825198173523
sg15
I814
sbsI313
(icore.engine
StatCollection
p1264
(dp1265
g3
I200
sg4
F15.020081996917725
sg5
F14.870741963386536
sg6
I2
sg7
F29.74148392677307
sg8
F14.870839953422546
sg9
S'OK'
p1266
sg11
S'16:37:11'
p1267
sg13
I0
sg14
F29.741679906845093
sg15
I814
sbsI314
(icore.engine
StatCollection
p1268
(dp1269
g3
I200
sg4
F15.85351300239563
sg5
F14.574027061462402
sg6
I2
sg7
F29.148054122924805
sg8
F14.574105978012085
sg9
S'OK'
p1270
sg11
S'16:37:11'
p1271
sg13
I0
sg14
F29.14821195602417
sg15
I814
sbsI315
(icore.engine
StatCollection
p1272
(dp1273
g3
I200
sg4
F14.142677068710327
sg5
F16.29000961780548
sg6
I2
sg7
F32.58001923561096
sg8
F16.29007649421692
sg9
S'OK'
p1274
sg11
S'16:37:11'
p1275
sg13
I0
sg14
F32.58015298843384
sg15
I814
sbsI316
(icore.engine
StatCollection
p1276
(dp1277
g3
I200
sg4
F14.734443187713623
sg5
F16.72501802444458
sg6
I2
sg7
F33.45003604888916
sg8
F16.72509455680847
sg9
S'OK'
p1278
sg11
S'16:37:11'
p1279
sg13
I0
sg14
F33.45018911361694
sg15
I814
sbsI317
(icore.engine
StatCollection
p1280
(dp1281
g3
I200
sg4
F20.099277019500732
sg5
F20.099179983139038
sg6
I1
sg7
F20.099179983139038
sg8
F20.099277019500732
sg9
S'OK'
p1282
sg11
S'16:37:11'
p1283
sg13
I0
sg14
F20.099277019500732
sg15
I407
sbsI318
(icore.engine
StatCollection
p1284
(dp1285
g3
I200
sg4
F15.792676210403442
sg5
F15.995146036148071
sg6
I2
sg7
F31.990292072296143
sg8
F15.99522852897644
sg9
S'OK'
p1286
sg11
S'16:37:11'
p1287
sg13
I0
sg14
F31.99045705795288
sg15
I814
sbsI319
(icore.engine
StatCollection
p1288
(dp1289
g3
I200
sg4
F14.415907144546509
sg5
F15.519158005714417
sg6
I2
sg7
F31.038316011428833
sg8
F15.519221544265747
sg9
S'OK'
p1290
sg11
S'16:37:11'
p1291
sg13
I0
sg14
F31.038443088531494
sg15
I814
sbsI320
(icore.engine
StatCollection
p1292
(dp1293
g3
I200
sg4
F12.74540901184082
sg5
F15.658571481704712
sg6
I2
sg7
F31.317142963409424
sg8
F15.658648490905762
sg9
S'OK'
p1294
sg11
S'16:37:11'
p1295
sg13
I0
sg14
F31.317296981811523
sg15
I814
sbsI321
(icore.engine
StatCollection
p1296
(dp1297
g3
I200
sg4
F14.50429391860962
sg5
F16.286023497581482
sg6
I2
sg7
F32.572046995162964
sg8
F16.286123991012573
sg9
S'OK'
p1298
sg11
S'16:37:11'
p1299
sg13
I0
sg14
F32.57224798202515
sg15
I814
sbsI322
(icore.engine
StatCollection
p1300
(dp1301
g3
I200
sg4
F15.077919006347656
sg5
F16.657761931419373
sg6
I2
sg7
F33.315523862838745
sg8
F16.657851457595825
sg9
S'OK'
p1302
sg11
S'16:37:11'
p1303
sg13
I0
sg14
F33.31570291519165
sg15
I814
sbsI323
(icore.engine
StatCollection
p1304
(dp1305
g3
I200
sg4
F20.0502450466156
sg5
F20.050137996673584
sg6
I1
sg7
F20.050137996673584
sg8
F20.0502450466156
sg9
S'OK'
p1306
sg11
S'16:37:11'
p1307
sg13
I0
sg14
F20.0502450466156
sg15
I407
sbsI324
(icore.engine
StatCollection
p1308
(dp1309
g3
I200
sg4
F14.333344221115112
sg5
F16.787225127220154
sg6
I2
sg7
F33.57445025444031
sg8
F16.7872896194458
sg9
S'OK'
p1310
sg11
S'16:37:11'
p1311
sg13
I0
sg14
F33.5745792388916
sg15
I814
sbsI325
(icore.engine
StatCollection
p1312
(dp1313
g3
I200
sg4
F13.787617921829224
sg5
F16.625426411628723
sg6
I2
sg7
F33.250852823257446
sg8
F16.6255065202713
sg9
S'OK'
p1314
sg11
S'16:37:11'
p1315
sg13
I0
sg14
F33.2510130405426
sg15
I814
sbsI326
(icore.engine
StatCollection
p1316
(dp1317
g3
I200
sg4
F15.376398801803589
sg5
F14.825962901115417
sg6
I2
sg7
F29.651925802230835
sg8
F14.82606041431427
sg9
S'OK'
p1318
sg11
S'16:37:11'
p1319
sg13
I0
sg14
F29.65212082862854
sg15
I814
sbsI327
(icore.engine
StatCollection
p1320
(dp1321
g3
I200
sg4
F13.409681797027588
sg5
F15.908742904663086
sg6
I2
sg7
F31.817485809326172
sg8
F15.908807873725891
sg9
S'OK'
p1322
sg11
S'16:37:11'
p1323
sg13
I0
sg14
F31.817615747451782
sg15
I814
sbsI328
(icore.engine
StatCollection
p1324
(dp1325
g3
I200
sg4
F13.663693189620972
sg5
F16.23430895805359
sg6
I2
sg7
F32.46861791610718
sg8
F16.234395623207092
sg9
S'OK'
p1326
sg11
S'16:37:11'
p1327
sg13
I0
sg14
F32.468791246414185
sg15
I814
sbsI329
(icore.engine
StatCollection
p1328
(dp1329
g3
I200
sg4
F14.582684993743896
sg5
F16.790343403816223
sg6
I2
sg7
F33.580686807632446
sg8
F16.790417909622192
sg9
S'OK'
p1330
sg11
S'16:37:11'
p1331
sg13
I0
sg14
F33.580835819244385
sg15
I814
sbsI330
(icore.engine
StatCollection
p1332
(dp1333
g3
I200
sg4
F14.444894075393677
sg5
F16.442546010017395
sg6
I2
sg7
F32.88509202003479
sg8
F16.442617535591125
sg9
S'OK'
p1334
sg11
S'16:37:11'
p1335
sg13
I0
sg14
F32.88523507118225
sg15
I814
sbsI331
(icore.engine
StatCollection
p1336
(dp1337
g3
I200
sg4
F11.598503112792969
sg5
F13.350275039672852
sg6
I2
sg7
F26.700550079345703
sg8
F13.350358605384827
sg9
S'OK'
p1338
sg11
S'16:37:11'
p1339
sg13
I0
sg14
F26.700717210769653
sg15
I814
sbsI332
(icore.engine
StatCollection
p1340
(dp1341
g3
I200
sg4
F13.742493152618408
sg5
F16.080992460250854
sg6
I2
sg7
F32.16198492050171
sg8
F16.08106255531311
sg9
S'OK'
p1342
sg11
S'16:37:11'
p1343
sg13
I0
sg14
F32.16212511062622
sg15
I814
sbsI333
(icore.engine
StatCollection
p1344
(dp1345
g3
I200
sg4
F13.78436803817749
sg5
F16.11206603050232
sg6
I2
sg7
F32.22413206100464
sg8
F16.112151980400085
sg9
S'OK'
p1346
sg11
S'16:37:11'
p1347
sg13
I0
sg14
F32.22430396080017
sg15
I814
sbsI334
(icore.engine
StatCollection
p1348
(dp1349
g3
I200
sg4
F13.265445947647095
sg5
F14.066149950027466
sg6
I2
sg7
F28.13229990005493
sg8
F14.066219449043274
sg9
S'OK'
p1350
sg11
S'16:37:11'
p1351
sg13
I0
sg14
F28.132438898086548
sg15
I814
sbsI335
(icore.engine
StatCollection
p1352
(dp1353
g3
I200
sg4
F9.72871994972229
sg5
F14.061317563056946
sg6
I2
sg7
F28.12263512611389
sg8
F14.061417937278748
sg9
S'OK'
p1354
sg11
S'16:37:11'
p1355
sg13
I0
sg14
F28.122835874557495
sg15
I814
sbsI336
(icore.engine
StatCollection
p1356
(dp1357
g3
I200
sg4
F15.831869125366211
sg5
F16.289085507392883
sg6
I2
sg7
F32.57817101478577
sg8
F16.28917956352234
sg9
S'OK'
p1358
sg11
S'16:37:11'
p1359
sg13
I0
sg14
F32.57835912704468
sg15
I814
sbsI337
(icore.engine
StatCollection
p1360
(dp1361
g3
I200
sg4
F13.767215967178345
sg5
F16.496165871620178
sg6
I2
sg7
F32.992331743240356
sg8
F16.496240496635437
sg9
S'OK'
p1362
sg11
S'16:37:11'
p1363
sg13
I0
sg14
F32.992480993270874
sg15
I814
sbsI338
(icore.engine
StatCollection
p1364
(dp1365
g3
I200
sg4
F14.550741910934448
sg5
F16.48088002204895
sg6
I2
sg7
F32.9617600440979
sg8
F16.48095190525055
sg9
S'OK'
p1366
sg11
S'16:37:11'
p1367
sg13
I0
sg14
F32.9619038105011
sg15
I814
sbsI339
(icore.engine
StatCollection
p1368
(dp1369
g3
I200
sg4
F14.142273902893066
sg5
F16.682252526283264
sg6
I2
sg7
F33.36450505256653
sg8
F16.6823148727417
sg9
S'OK'
p1370
sg11
S'16:37:11'
p1371
sg13
I0
sg14
F33.3646297454834
sg15
I814
sbsI340
(icore.engine
StatCollection
p1372
(dp1373
g3
I200
sg4
F14.567732095718384
sg5
F16.553789019584656
sg6
I2
sg7
F33.10757803916931
sg8
F16.553844571113586
sg9
S'OK'
p1374
sg11
S'16:37:11'
p1375
sg13
I0
sg14
F33.10768914222717
sg15
I814
sbsI341
(icore.engine
StatCollection
p1376
(dp1377
g3
I200
sg4
F14.451847076416016
sg5
F16.564067006111145
sg6
I2
sg7
F33.12813401222229
sg8
F16.56413996219635
sg9
S'OK'
p1378
sg11
S'16:37:11'
p1379
sg13
I0
sg14
F33.1282799243927
sg15
I814
sbsI342
(icore.engine
StatCollection
p1380
(dp1381
g3
I200
sg4
F13.713426113128662
sg5
F16.359468936920166
sg6
I2
sg7
F32.71893787384033
sg8
F16.359552025794983
sg9
S'OK'
p1382
sg11
S'16:37:11'
p1383
sg13
I0
sg14
F32.719104051589966
sg15
I814
sbsI343
(icore.engine
StatCollection
p1384
(dp1385
g3
I200
sg4
F14.852638006210327
sg5
F16.753201484680176
sg6
I2
sg7
F33.50640296936035
sg8
F16.75326895713806
sg9
S'OK'
p1386
sg11
S'16:37:11'
p1387
sg13
I0
sg14
F33.50653791427612
sg15
I814
sbsI344
(icore.engine
StatCollection
p1388
(dp1389
g3
I200
sg4
F12.026396989822388
sg5
F15.205024123191833
sg6
I2
sg7
F30.410048246383667
sg8
F15.205090045928955
sg9
S'OK'
p1390
sg11
S'16:37:11'
p1391
sg13
I0
sg14
F30.41018009185791
sg15
I814
sbsI345
(icore.engine
StatCollection
p1392
(dp1393
g3
I200
sg4
F13.234042882919312
sg5
F16.22094202041626
sg6
I2
sg7
F32.44188404083252
sg8
F16.2209974527359
sg9
S'OK'
p1394
sg11
S'16:37:11'
p1395
sg13
I0
sg14
F32.4419949054718
sg15
I814
sbsI346
(icore.engine
StatCollection
p1396
(dp1397
g3
I200
sg4
F13.002871036529541
sg5
F15.688298463821411
sg6
I2
sg7
F31.376596927642822
sg8
F15.688368558883667
sg9
S'OK'
p1398
sg11
S'16:37:11'
p1399
sg13
I0
sg14
F31.376737117767334
sg15
I814
sbsI347
(icore.engine
StatCollection
p1400
(dp1401
g3
I200
sg4
F13.996302127838135
sg5
F16.183802127838135
sg6
I2
sg7
F32.36760425567627
sg8
F16.18387460708618
sg9
S'OK'
p1402
sg11
S'16:37:11'
p1403
sg13
I0
sg14
F32.36774921417236
sg15
I814
sbsI348
(icore.engine
StatCollection
p1404
(dp1405
g3
I200
sg4
F13.811580181121826
sg5
F16.529221057891846
sg6
I2
sg7
F33.05844211578369
sg8
F16.52929162979126
sg9
S'OK'
p1406
sg11
S'16:37:11'
p1407
sg13
I0
sg14
F33.05858325958252
sg15
I814
sbsI349
(icore.engine
StatCollection
p1408
(dp1409
g3
I200
sg4
F20.952746868133545
sg5
F20.952667951583862
sg6
I1
sg7
F20.952667951583862
sg8
F20.952746868133545
sg9
S'OK'
p1410
sg11
S'16:37:11'
p1411
sg13
I0
sg14
F20.952746868133545
sg15
I407
sbsI350
(icore.engine
StatCollection
p1412
(dp1413
g3
I200
sg4
F14.233645915985107
sg5
F16.439223885536194
sg6
I2
sg7
F32.87844777107239
sg8
F16.439285397529602
sg9
S'OK'
p1414
sg11
S'16:37:11'
p1415
sg13
I0
sg14
F32.878570795059204
sg15
I814
sbsI351
(icore.engine
StatCollection
p1416
(dp1417
g3
I200
sg4
F13.096436977386475
sg5
F15.730556011199951
sg6
I2
sg7
F31.461112022399902
sg8
F15.73065197467804
sg9
S'OK'
p1418
sg11
S'16:37:11'
p1419
sg13
I0
sg14
F31.46130394935608
sg15
I814
sbsI352
(icore.engine
StatCollection
p1420
(dp1421
g3
I200
sg4
F14.69540786743164
sg5
F16.69236385822296
sg6
I2
sg7
F33.38472771644592
sg8
F16.692439436912537
sg9
S'OK'
p1422
sg11
S'16:37:11'
p1423
sg13
I0
sg14
F33.38487887382507
sg15
I814
sbsI353
(icore.engine
StatCollection
p1424
(dp1425
g3
I200
sg4
F12.60298204421997
sg5
F14.506962418556213
sg6
I2
sg7
F29.013924837112427
sg8
F14.507030963897705
sg9
S'OK'
p1426
sg11
S'16:37:11'
p1427
sg13
I0
sg14
F29.01406192779541
sg15
I814
sbsI354
(icore.engine
StatCollection
p1428
(dp1429
g3
I200
sg4
F14.135848999023438
sg5
F15.924795031547546
sg6
I2
sg7
F31.849590063095093
sg8
F15.924890995025635
sg9
S'OK'
p1430
sg11
S'16:37:11'
p1431
sg13
I0
sg14
F31.84978199005127
sg15
I814
sbsI355
(icore.engine
StatCollection
p1432
(dp1433
g3
I200
sg4
F20.023149013519287
sg5
F20.023079872131348
sg6
I1
sg7
F20.023079872131348
sg8
F20.023149013519287
sg9
S'OK'
p1434
sg11
S'16:37:11'
p1435
sg13
I0
sg14
F20.023149013519287
sg15
I407
sbsI356
(icore.engine
StatCollection
p1436
(dp1437
g3
I200
sg4
F19.630942821502686
sg5
F19.630868911743164
sg6
I1
sg7
F19.630868911743164
sg8
F19.630942821502686
sg9
S'OK'
p1438
sg11
S'16:37:11'
p1439
sg13
I0
sg14
F19.630942821502686
sg15
I407
sbsI357
(icore.engine
StatCollection
p1440
(dp1441
g3
I200
sg4
F13.690447092056274
sg5
F14.92305338382721
sg6
I2
sg7
F29.84610676765442
sg8
F14.923116564750671
sg9
S'OK'
p1442
sg11
S'16:37:11'
p1443
sg13
I0
sg14
F29.846233129501343
sg15
I814
sbsI358
(icore.engine
StatCollection
p1444
(dp1445
g3
I200
sg4
F13.993479013442993
sg5
F16.254096031188965
sg6
I2
sg7
F32.50819206237793
sg8
F16.25418245792389
sg9
S'OK'
p1446
sg11
S'16:37:11'
p1447
sg13
I0
sg14
F32.50836491584778
sg15
I814
sbsI359
(icore.engine
StatCollection
p1448
(dp1449
g3
I200
sg4
F14.818401098251343
sg5
F16.613149046897888
sg6
I2
sg7
F33.226298093795776
sg8
F16.61322510242462
sg9
S'OK'
p1450
sg11
S'16:37:11'
p1451
sg13
I0
sg14
F33.22645020484924
sg15
I814
sbsI360
(icore.engine
StatCollection
p1452
(dp1453
g3
I200
sg4
F16.106930017471313
sg5
F15.632672548294067
sg6
I2
sg7
F31.265345096588135
sg8
F15.632745027542114
sg9
S'OK'
p1454
sg11
S'16:37:11'
p1455
sg13
I0
sg14
F31.26549005508423
sg15
I814
sbsI361
(icore.engine
StatCollection
p1456
(dp1457
g3
I200
sg4
F14.02048110961914
sg5
F16.18344008922577
sg6
I2
sg7
F32.36688017845154
sg8
F16.183518052101135
sg9
S'OK'
p1458
sg11
S'16:37:11'
p1459
sg13
I0
sg14
F32.36703610420227
sg15
I814
sbsI362
(icore.engine
StatCollection
p1460
(dp1461
g3
I200
sg4
F19.660884141921997
sg5
F19.660821199417114
sg6
I1
sg7
F19.660821199417114
sg8
F19.660884141921997
sg9
S'OK'
p1462
sg11
S'16:37:11'
p1463
sg13
I0
sg14
F19.660884141921997
sg15
I407
sbsI363
(icore.engine
StatCollection
p1464
(dp1465
g3
I200
sg4
F13.568367004394531
sg5
F15.186085939407349
sg6
I2
sg7
F30.372171878814697
sg8
F15.186169505119324
sg9
S'OK'
p1466
sg11
S'16:37:11'
p1467
sg13
I0
sg14
F30.372339010238647
sg15
I814
sbsI364
(icore.engine
StatCollection
p1468
(dp1469
g3
I200
sg4
F13.5347580909729
sg5
F13.86257004737854
sg6
I2
sg7
F27.72514009475708
sg8
F13.86264955997467
sg9
S'OK'
p1470
sg11
S'16:37:11'
p1471
sg13
I0
sg14
F27.72529911994934
sg15
I814
sbsI365
(icore.engine
StatCollection
p1472
(dp1473
g3
I200
sg4
F13.94796109199524
sg5
F16.155628085136414
sg6
I2
sg7
F32.31125617027283
sg8
F16.155696034431458
sg9
S'OK'
p1474
sg11
S'16:37:11'
p1475
sg13
I0
sg14
F32.311392068862915
sg15
I814
sbsI366
(icore.engine
StatCollection
p1476
(dp1477
g3
I200
sg4
F10.90202808380127
sg5
F13.513610482215881
sg6
I2
sg7
F27.027220964431763
sg8
F13.513723015785217
sg9
S'OK'
p1478
sg11
S'16:37:11'
p1479
sg13
I0
sg14
F27.027446031570435
sg15
I814
sbsI367
(icore.engine
StatCollection
p1480
(dp1481
g3
I200
sg4
F13.883394956588745
sg5
F16.13560652732849
sg6
I2
sg7
F32.27121305465698
sg8
F16.13567292690277
sg9
S'OK'
p1482
sg11
S'16:37:11'
p1483
sg13
I0
sg14
F32.27134585380554
sg15
I814
sbsI368
(icore.engine
StatCollection
p1484
(dp1485
g3
I200
sg4
F14.072710037231445
sg5
F16.232460618019104
sg6
I2
sg7
F32.46492123603821
sg8
F16.23257350921631
sg9
S'OK'
p1486
sg11
S'16:37:11'
p1487
sg13
I0
sg14
F32.46514701843262
sg15
I814
sbsI369
(icore.engine
StatCollection
p1488
(dp1489
g3
I200
sg4
F14.17140507698059
sg5
F16.26953649520874
sg6
I2
sg7
F32.53907299041748
sg8
F16.26962161064148
sg9
S'OK'
p1490
sg11
S'16:37:11'
p1491
sg13
I0
sg14
F32.53924322128296
sg15
I814
sbsI370
(icore.engine
StatCollection
p1492
(dp1493
g3
I200
sg4
F13.852317094802856
sg5
F15.644462943077087
sg6
I2
sg7
F31.288925886154175
sg8
F15.644535541534424
sg9
S'OK'
p1494
sg11
S'16:37:11'
p1495
sg13
I0
sg14
F31.289071083068848
sg15
I814
sbsI371
(icore.engine
StatCollection
p1496
(dp1497
g3
I200
sg4
F14.862036943435669
sg5
F16.598942041397095
sg6
I2
sg7
F33.19788408279419
sg8
F16.59900450706482
sg9
S'OK'
p1498
sg11
S'16:37:11'
p1499
sg13
I0
sg14
F33.19800901412964
sg15
I814
sbsI372
(icore.engine
StatCollection
p1500
(dp1501
g3
I200
sg4
F15.005457878112793
sg5
F16.694843411445618
sg6
I2
sg7
F33.389686822891235
sg8
F16.694910407066345
sg9
S'OK'
p1502
sg11
S'16:37:11'
p1503
sg13
I0
sg14
F33.38982081413269
sg15
I814
sbsI373
(icore.engine
StatCollection
p1504
(dp1505
g3
I200
sg4
F15.414803981781006
sg5
F16.704923510551453
sg6
I2
sg7
F33.409847021102905
sg8
F16.705004453659058
sg9
S'OK'
p1506
sg11
S'16:37:11'
p1507
sg13
I0
sg14
F33.410008907318115
sg15
I814
sbsI374
(icore.engine
StatCollection
p1508
(dp1509
g3
I200
sg4
F14.33043909072876
sg5
F15.880385518074036
sg6
I2
sg7
F31.76077103614807
sg8
F15.880457997322083
sg9
S'OK'
p1510
sg11
S'16:37:11'
p1511
sg13
I0
sg14
F31.760915994644165
sg15
I814
sbsI375
(icore.engine
StatCollection
p1512
(dp1513
g3
I200
sg4
F14.825668096542358
sg5
F16.723490953445435
sg6
I2
sg7
F33.44698190689087
sg8
F16.72354805469513
sg9
S'OK'
p1514
sg11
S'16:37:11'
p1515
sg13
I0
sg14
F33.44709610939026
sg15
I814
sbsI376
(icore.engine
StatCollection
p1516
(dp1517
g3
I200
sg4
F13.234523057937622
sg5
F15.920349597930908
sg6
I2
sg7
F31.840699195861816
sg8
F15.920421957969666
sg9
S'OK'
p1518
sg11
S'16:37:11'
p1519
sg13
I0
sg14
F31.84084391593933
sg15
I814
sbsI377
(icore.engine
StatCollection
p1520
(dp1521
g3
I200
sg4
F12.620139122009277
sg5
F15.470487117767334
sg6
I2
sg7
F30.940974235534668
sg8
F15.470553040504456
sg9
S'OK'
p1522
sg11
S'16:37:11'
p1523
sg13
I0
sg14
F30.94110608100891
sg15
I814
sbsI378
(icore.engine
StatCollection
p1524
(dp1525
g3
I200
sg4
F13.021825075149536
sg5
F13.885063529014587
sg6
I2
sg7
F27.770127058029175
sg8
F13.885151028633118
sg9
S'OK'
p1526
sg11
S'16:37:11'
p1527
sg13
I0
sg14
F27.770302057266235
sg15
I814
sbsI379
(icore.engine
StatCollection
p1528
(dp1529
g3
I200
sg4
F10.146842002868652
sg5
F13.12802505493164
sg6
I2
sg7
F26.25605010986328
sg8
F13.12809443473816
sg9
S'OK'
p1530
sg11
S'16:37:11'
p1531
sg13
I0
sg14
F26.25618886947632
sg15
I814
sbsI380
(icore.engine
StatCollection
p1532
(dp1533
g3
I200
sg4
F14.348621129989624
sg5
F16.7539484500885
sg6
I2
sg7
F33.507896900177
sg8
F16.754021048545837
sg9
S'OK'
p1534
sg11
S'16:37:11'
p1535
sg13
I0
sg14
F33.508042097091675
sg15
I814
sbsI381
(icore.engine
StatCollection
p1536
(dp1537
g3
I200
sg4
F19.58940100669861
sg5
F19.589322805404663
sg6
I1
sg7
F19.589322805404663
sg8
F19.58940100669861
sg9
S'OK'
p1538
sg11
S'16:37:11'
p1539
sg13
I0
sg14
F19.58940100669861
sg15
I407
sbsI382
(icore.engine
StatCollection
p1540
(dp1541
g3
I200
sg4
F13.757846117019653
sg5
F16.174737572669983
sg6
I2
sg7
F32.349475145339966
sg8
F16.174838066101074
sg9
S'OK'
p1542
sg11
S'16:37:11'
p1543
sg13
I0
sg14
F32.34967613220215
sg15
I814
sbsI383
(icore.engine
StatCollection
p1544
(dp1545
g3
I200
sg4
F14.44935393333435
sg5
F16.211689352989197
sg6
I2
sg7
F32.423378705978394
sg8
F16.211764931678772
sg9
S'OK'
p1546
sg11
S'16:37:11'
p1547
sg13
I0
sg14
F32.423529863357544
sg15
I814
sbsI384
(icore.engine
StatCollection
p1548
(dp1549
g3
I200
sg4
F12.658630847930908
sg5
F15.910162925720215
sg6
I2
sg7
F31.82032585144043
sg8
F15.9102463722229
sg9
S'OK'
p1550
sg11
S'16:37:11'
p1551
sg13
I0
sg14
F31.8204927444458
sg15
I814
sbsI385
(icore.engine
StatCollection
p1552
(dp1553
g3
I200
sg4
F12.363077163696289
sg5
F13.449761986732483
sg6
I2
sg7
F26.899523973464966
sg8
F13.449830532073975
sg9
S'OK'
p1554
sg11
S'16:37:11'
p1555
sg13
I0
sg14
F26.89966106414795
sg15
I814
sbsI386
(icore.engine
StatCollection
p1556
(dp1557
g3
I200
sg4
F14.404154062271118
sg5
F16.503181099891663
sg6
I2
sg7
F33.006362199783325
sg8
F16.503260612487793
sg9
S'OK'
p1558
sg11
S'16:37:11'
p1559
sg13
I0
sg14
F33.006521224975586
sg15
I814
sbsI387
(icore.engine
StatCollection
p1560
(dp1561
g3
I200
sg4
F13.941159963607788
sg5
F16.590104937553406
sg6
I2
sg7
F33.18020987510681
sg8
F16.590181469917297
sg9
S'OK'
p1562
sg11
S'16:37:11'
p1563
sg13
I0
sg14
F33.180362939834595
sg15
I814
sbsI388
(icore.engine
StatCollection
p1564
(dp1565
g3
I200
sg4
F14.67233395576477
sg5
F15.918812036514282
sg6
I2
sg7
F31.837624073028564
sg8
F15.918877959251404
sg9
S'OK'
p1566
sg11
S'16:37:11'
p1567
sg13
I0
sg14
F31.837755918502808
sg15
I814
sbsI389
(icore.engine
StatCollection
p1568
(dp1569
g3
I200
sg4
F13.531182050704956
sg5
F15.7155020236969
sg6
I2
sg7
F31.4310040473938
sg8
F15.715586066246033
sg9
S'OK'
p1570
sg11
S'16:37:11'
p1571
sg13
I0
sg14
F31.431172132492065
sg15
I814
sbsI390
(icore.engine
StatCollection
p1572
(dp1573
g3
I200
sg4
F15.181082963943481
sg5
F16.295626521110535
sg6
I2
sg7
F32.59125304222107
sg8
F16.295707941055298
sg9
S'OK'
p1574
sg11
S'16:37:11'
p1575
sg13
I0
sg14
F32.591415882110596
sg15
I814
sbsI391
(icore.engine
StatCollection
p1576
(dp1577
g3
I200
sg4
F14.067285060882568
sg5
F16.56833302974701
sg6
I2
sg7
F33.13666605949402
sg8
F16.56840443611145
sg9
S'OK'
p1578
sg11
S'16:37:11'
p1579
sg13
I0
sg14
F33.1368088722229
sg15
I814
sbsI392
(icore.engine
StatCollection
p1580
(dp1581
g3
I200
sg4
F16.405765056610107
sg5
F16.24931299686432
sg6
I2
sg7
F32.49862599372864
sg8
F16.24939250946045
sg9
S'OK'
p1582
sg11
S'16:37:11'
p1583
sg13
I0
sg14
F32.4987850189209
sg15
I814
sbsI393
(icore.engine
StatCollection
p1584
(dp1585
g3
I200
sg4
F19.617074012756348
sg5
F19.617003202438354
sg6
I1
sg7
F19.617003202438354
sg8
F19.617074012756348
sg9
S'OK'
p1586
sg11
S'16:37:11'
p1587
sg13
I0
sg14
F19.617074012756348
sg15
I407
sbsI394
(icore.engine
StatCollection
p1588
(dp1589
g3
I200
sg4
F14.583262920379639
sg5
F16.454909563064575
sg6
I2
sg7
F32.90981912612915
sg8
F16.45498299598694
sg9
S'OK'
p1590
sg11
S'16:37:11'
p1591
sg13
I0
sg14
F32.90996599197388
sg15
I814
sbsI395
(icore.engine
StatCollection
p1592
(dp1593
g3
I200
sg4
F13.673102855682373
sg5
F15.6069575548172
sg6
I2
sg7
F31.2139151096344
sg8
F15.60705292224884
sg9
S'OK'
p1594
sg11
S'16:37:11'
p1595
sg13
I0
sg14
F31.21410584449768
sg15
I814
sbsI396
(icore.engine
StatCollection
p1596
(dp1597
g3
I200
sg4
F14.426764965057373
sg5
F16.505823969841003
sg6
I2
sg7
F33.01164793968201
sg8
F16.505891919136047
sg9
S'OK'
p1598
sg11
S'16:37:11'
p1599
sg13
I0
sg14
F33.011783838272095
sg15
I814
sbsI397
(icore.engine
StatCollection
p1600
(dp1601
g3
I200
sg4
F15.18750286102295
sg5
F16.494953513145447
sg6
I2
sg7
F32.989907026290894
sg8
F16.495030403137207
sg9
S'OK'
p1602
sg11
S'16:37:11'
p1603
sg13
I0
sg14
F32.990060806274414
sg15
I814
sbsI398
(icore.engine
StatCollection
p1604
(dp1605
g3
I200
sg4
F19.946521043777466
sg5
F19.946428060531616
sg6
I1
sg7
F19.946428060531616
sg8
F19.946521043777466
sg9
S'OK'
p1606
sg11
S'16:37:11'
p1607
sg13
I0
sg14
F19.946521043777466
sg15
I407
sbsI399
(icore.engine
StatCollection
p1608
(dp1609
g3
I200
sg4
F12.49794602394104
sg5
F15.39818799495697
sg6
I2
sg7
F30.79637598991394
sg8
F15.398301005363464
sg9
S'OK'
p1610
sg11
S'16:37:11'
p1611
sg13
I0
sg14
F30.79660201072693
sg15
I814
sbsI400
(icore.engine
StatCollection
p1612
(dp1613
g3
I200
sg4
F12.815447092056274
sg5
F16.020833492279053
sg6
I2
sg7
F32.041666984558105
sg8
F16.020923018455505
sg9
S'OK'
p1614
sg11
S'16:37:11'
p1615
sg13
I0
sg14
F32.04184603691101
sg15
I814
sbsI401
(icore.engine
StatCollection
p1616
(dp1617
g3
I200
sg4
F13.962730884552002
sg5
F16.686630845069885
sg6
I2
sg7
F33.37326169013977
sg8
F16.686728954315186
sg9
S'OK'
p1618
sg11
S'16:37:11'
p1619
sg13
I0
sg14
F33.37345790863037
sg15
I814
sbsI402
(icore.engine
StatCollection
p1620
(dp1621
g3
I200
sg4
F12.54257583618164
sg5
F13.792397379875183
sg6
I2
sg7
F27.584794759750366
sg8
F13.792456865310669
sg9
S'OK'
p1622
sg11
S'16:37:11'
p1623
sg13
I0
sg14
F27.584913730621338
sg15
I814
sbsI403
(icore.engine
StatCollection
p1624
(dp1625
g3
I200
sg4
F14.449138164520264
sg5
F16.44395661354065
sg6
I2
sg7
F32.8879132270813
sg8
F16.4440416097641
sg9
S'OK'
p1626
sg11
S'16:37:11'
p1627
sg13
I0
sg14
F32.8880832195282
sg15
I814
sbsI404
(icore.engine
StatCollection
p1628
(dp1629
g3
I200
sg4
F19.976701974868774
sg5
F19.976630926132202
sg6
I1
sg7
F19.976630926132202
sg8
F19.976701974868774
sg9
S'OK'
p1630
sg11
S'16:37:11'
p1631
sg13
I0
sg14
F19.976701974868774
sg15
I407
sbsI405
(icore.engine
StatCollection
p1632
(dp1633
g3
I200
sg4
F14.819119930267334
sg5
F16.69153094291687
sg6
I2
sg7
F33.38306188583374
sg8
F16.691597938537598
sg9
S'OK'
p1634
sg11
S'16:37:11'
p1635
sg13
I0
sg14
F33.383195877075195
sg15
I814
sbsI406
(icore.engine
StatCollection
p1636
(dp1637
g3
I200
sg4
F14.802268028259277
sg5
F16.567825436592102
sg6
I2
sg7
F33.135650873184204
sg8
F16.567892909049988
sg9
S'OK'
p1638
sg11
S'16:37:11'
p1639
sg13
I0
sg14
F33.135785818099976
sg15
I814
sbsI407
(icore.engine
StatCollection
p1640
(dp1641
g3
I200
sg4
F20.012571096420288
sg5
F20.01248812675476
sg6
I1
sg7
F20.01248812675476
sg8
F20.012571096420288
sg9
S'OK'
p1642
sg11
S'16:37:11'
p1643
sg13
I0
sg14
F20.012571096420288
sg15
I407
sbsI408
(icore.engine
StatCollection
p1644
(dp1645
g3
I200
sg4
F19.59520387649536
sg5
F19.595129013061523
sg6
I1
sg7
F19.595129013061523
sg8
F19.59520387649536
sg9
S'OK'
p1646
sg11
S'16:37:11'
p1647
sg13
I0
sg14
F19.59520387649536
sg15
I407
sbsI409
(icore.engine
StatCollection
p1648
(dp1649
g3
I200
sg4
F14.406632900238037
sg5
F16.355911374092102
sg6
I2
sg7
F32.711822748184204
sg8
F16.35596740245819
sg9
S'OK'
p1650
sg11
S'16:37:11'
p1651
sg13
I0
sg14
F32.71193480491638
sg15
I814
sbsI410
(icore.engine
StatCollection
p1652
(dp1653
g3
I200
sg4
F13.40136981010437
sg5
F15.035792350769043
sg6
I2
sg7
F30.071584701538086
sg8
F15.03586733341217
sg9
S'OK'
p1654
sg11
S'16:37:11'
p1655
sg13
I0
sg14
F30.07173466682434
sg15
I814
sbsI411
(icore.engine
StatCollection
p1656
(dp1657
g3
I200
sg4
F13.93514895439148
sg5
F16.248818516731262
sg6
I2
sg7
F32.497637033462524
sg8
F16.248891949653625
sg9
S'OK'
p1658
sg11
S'16:37:11'
p1659
sg13
I0
sg14
F32.49778389930725
sg15
I814
sbsI412
(icore.engine
StatCollection
p1660
(dp1661
g3
I200
sg4
F14.746772050857544
sg5
F16.656906127929688
sg6
I2
sg7
F33.313812255859375
sg8
F16.656994581222534
sg9
S'OK'
p1662
sg11
S'16:37:11'
p1663
sg13
I0
sg14
F33.31398916244507
sg15
I814
sbsI413
(icore.engine
StatCollection
p1664
(dp1665
g3
I200
sg4
F15.09908390045166
sg5
F16.240883469581604
sg6
I2
sg7
F32.48176693916321
sg8
F16.240957021713257
sg9
S'OK'
p1666
sg11
S'16:37:11'
p1667
sg13
I0
sg14
F32.481914043426514
sg15
I814
sbsI414
(icore.engine
StatCollection
p1668
(dp1669
g3
I200
sg4
F13.284908056259155
sg5
F16.000743508338928
sg6
I2
sg7
F32.001487016677856
sg8
F16.000820517539978
sg9
S'OK'
p1670
sg11
S'16:37:11'
p1671
sg13
I0
sg14
F32.001641035079956
sg15
I814
sbsI415
(icore.engine
StatCollection
p1672
(dp1673
g3
I200
sg4
F15.822468042373657
sg5
F16.463485598564148
sg6
I2
sg7
F32.926971197128296
sg8
F16.463594555854797
sg9
S'OK'
p1674
sg11
S'16:37:11'
p1675
sg13
I0
sg14
F32.927189111709595
sg15
I814
sbsI416
(icore.engine
StatCollection
p1676
(dp1677
g3
I200
sg4
F12.069064855575562
sg5
F14.589540004730225
sg6
I2
sg7
F29.17908000946045
sg8
F14.589614868164062
sg9
S'OK'
p1678
sg11
S'16:37:11'
p1679
sg13
I0
sg14
F29.179229736328125
sg15
I814
sbsI417
(icore.engine
StatCollection
p1680
(dp1681
g3
I200
sg4
F14.284049987792969
sg5
F16.70112144947052
sg6
I2
sg7
F33.40224289894104
sg8
F16.701194047927856
sg9
S'OK'
p1682
sg11
S'16:37:11'
p1683
sg13
I0
sg14
F33.40238809585571
sg15
I814
sbsI418
(icore.engine
StatCollection
p1684
(dp1685
g3
I200
sg4
F14.34542202949524
sg5
F16.450441002845764
sg6
I2
sg7
F32.90088200569153
sg8
F16.450509071350098
sg9
S'OK'
p1686
sg11
S'16:37:11'
p1687
sg13
I0
sg14
F32.901018142700195
sg15
I814
sbsI419
(icore.engine
StatCollection
p1688
(dp1689
g3
I200
sg4
F14.881299018859863
sg5
F16.654844999313354
sg6
I2
sg7
F33.30968999862671
sg8
F16.654906034469604
sg9
S'OK'
p1690
sg11
S'16:37:11'
p1691
sg13
I0
sg14
F33.30981206893921
sg15
I814
sbsI420
(icore.engine
StatCollection
p1692
(dp1693
g3
I200
sg4
F14.883302927017212
sg5
F16.689897060394287
sg6
I2
sg7
F33.379794120788574
sg8
F16.690001487731934
sg9
S'OK'
p1694
sg11
S'16:37:11'
p1695
sg13
I0
sg14
F33.38000297546387
sg15
I814
sbsI421
(icore.engine
StatCollection
p1696
(dp1697
g3
I200
sg4
F11.981719017028809
sg5
F15.150448560714722
sg6
I2
sg7
F30.300897121429443
sg8
F15.150522589683533
sg9
S'OK'
p1698
sg11
S'16:37:11'
p1699
sg13
I0
sg14
F30.301045179367065
sg15
I814
sbsI422
(icore.engine
StatCollection
p1700
(dp1701
g3
I200
sg4
F14.455599784851074
sg5
F16.366442918777466
sg6
I2
sg7
F32.73288583755493
sg8
F16.366532921791077
sg9
S'OK'
p1702
sg11
S'16:37:11'
p1703
sg13
I0
sg14
F32.73306584358215
sg15
I814
sbsI423
(icore.engine
StatCollection
p1704
(dp1705
g3
I200
sg4
F19.912153959274292
sg5
F19.912056922912598
sg6
I1
sg7
F19.912056922912598
sg8
F19.912153959274292
sg9
S'OK'
p1706
sg11
S'16:37:11'
p1707
sg13
I0
sg14
F19.912153959274292
sg15
I407
sbsI424
(icore.engine
StatCollection
p1708
(dp1709
g3
I200
sg4
F12.659265041351318
sg5
F15.233457565307617
sg6
I2
sg7
F30.466915130615234
sg8
F15.233548521995544
sg9
S'OK'
p1710
sg11
S'16:37:11'
p1711
sg13
I0
sg14
F30.46709704399109
sg15
I814
sbsI425
(icore.engine
StatCollection
p1712
(dp1713
g3
I200
sg4
F14.588310956954956
sg5
F16.426130414009094
sg6
I2
sg7
F32.85226082801819
sg8
F16.42620038986206
sg9
S'OK'
p1714
sg11
S'16:37:11'
p1715
sg13
I0
sg14
F32.85240077972412
sg15
I814
sbsI426
(icore.engine
StatCollection
p1716
(dp1717
g3
I200
sg4
F14.502047061920166
sg5
F16.511916041374207
sg6
I2
sg7
F33.02383208274841
sg8
F16.511983513832092
sg9
S'OK'
p1718
sg11
S'16:37:11'
p1719
sg13
I0
sg14
F33.023967027664185
sg15
I814
sbsI427
(icore.engine
StatCollection
p1720
(dp1721
g3
I200
sg4
F15.514885902404785
sg5
F14.997939467430115
sg6
I2
sg7
F29.99587893486023
sg8
F14.9980149269104
sg9
S'OK'
p1722
sg11
S'16:37:11'
p1723
sg13
I0
sg14
F29.9960298538208
sg15
I814
sbsI428
(icore.engine
StatCollection
p1724
(dp1725
g3
I200
sg4
F14.254802942276001
sg5
F16.71399700641632
sg6
I2
sg7
F33.42799401283264
sg8
F16.71404457092285
sg9
S'OK'
p1726
sg11
S'16:37:11'
p1727
sg13
I0
sg14
F33.4280891418457
sg15
I814
sbsI429
(icore.engine
StatCollection
p1728
(dp1729
g3
I200
sg4
F15.303467035293579
sg5
F16.555919528007507
sg6
I2
sg7
F33.111839056015015
sg8
F16.55600106716156
sg9
S'OK'
p1730
sg11
S'16:37:11'
p1731
sg13
I0
sg14
F33.11200213432312
sg15
I814
sbsI430
(icore.engine
StatCollection
p1732
(dp1733
g3
I200
sg4
F21.15156388282776
sg5
F21.151488780975342
sg6
I1
sg7
F21.151488780975342
sg8
F21.15156388282776
sg9
S'OK'
p1734
sg11
S'16:37:11'
p1735
sg13
I0
sg14
F21.15156388282776
sg15
I407
sbsI431
(icore.engine
StatCollection
p1736
(dp1737
g3
I200
sg4
F19.91582202911377
sg5
F19.915760040283203
sg6
I1
sg7
F19.915760040283203
sg8
F19.91582202911377
sg9
S'OK'
p1738
sg11
S'16:37:11'
p1739
sg13
I0
sg14
F19.91582202911377
sg15
I407
sbsI432
(icore.engine
StatCollection
p1740
(dp1741
g3
I200
sg4
F14.670459985733032
sg5
F16.591974139213562
sg6
I2
sg7
F33.183948278427124
sg8
F16.592038989067078
sg9
S'OK'
p1742
sg11
S'16:37:11'
p1743
sg13
I0
sg14
F33.184077978134155
sg15
I814
sbsI433
(icore.engine
StatCollection
p1744
(dp1745
g3
I200
sg4
F19.468652963638306
sg5
F19.468589782714844
sg6
I1
sg7
F19.468589782714844
sg8
F19.468652963638306
sg9
S'OK'
p1746
sg11
S'16:37:11'
p1747
sg13
I0
sg14
F19.468652963638306
sg15
I407
sbsI434
(icore.engine
StatCollection
p1748
(dp1749
g3
I200
sg4
F14.37448000907898
sg5
F16.732322454452515
sg6
I2
sg7
F33.46464490890503
sg8
F16.73240303993225
sg9
S'OK'
p1750
sg11
S'16:37:11'
p1751
sg13
I0
sg14
F33.4648060798645
sg15
I814
sbsI435
(icore.engine
StatCollection
p1752
(dp1753
g3
I200
sg4
F19.519974946975708
sg5
F19.519876956939697
sg6
I1
sg7
F19.519876956939697
sg8
F19.519974946975708
sg9
S'OK'
p1754
sg11
S'16:37:11'
p1755
sg13
I0
sg14
F19.519974946975708
sg15
I407
sbsI436
(icore.engine
StatCollection
p1756
(dp1757
g3
I200
sg4
F13.793352842330933
sg5
F16.43945837020874
sg6
I2
sg7
F32.87891674041748
sg8
F16.439550399780273
sg9
S'OK'
p1758
sg11
S'16:37:11'
p1759
sg13
I0
sg14
F32.87910079956055
sg15
I814
sbsI437
(icore.engine
StatCollection
p1760
(dp1761
g3
I200
sg4
F14.470776796340942
sg5
F16.437012910842896
sg6
I2
sg7
F32.87402582168579
sg8
F16.437087893486023
sg9
S'OK'
p1762
sg11
S'16:37:11'
p1763
sg13
I0
sg14
F32.874175786972046
sg15
I814
sbsI438
(icore.engine
StatCollection
p1764
(dp1765
g3
I200
sg4
F14.092061042785645
sg5
F16.58716344833374
sg6
I2
sg7
F33.17432689666748
sg8
F16.58722746372223
sg9
S'OK'
p1766
sg11
S'16:37:11'
p1767
sg13
I0
sg14
F33.17445492744446
sg15
I814
sbsI439
(icore.engine
StatCollection
p1768
(dp1769
g3
I200
sg4
F14.346560001373291
sg5
F16.31775140762329
sg6
I2
sg7
F32.63550281524658
sg8
F16.317811965942383
sg9
S'OK'
p1770
sg11
S'16:37:11'
p1771
sg13
I0
sg14
F32.635623931884766
sg15
I814
sbsI440
(icore.engine
StatCollection
p1772
(dp1773
g3
I200
sg4
F12.654386043548584
sg5
F12.160391569137573
sg6
I2
sg7
F24.320783138275146
sg8
F12.160481095314026
sg9
S'OK'
p1774
sg11
S'16:37:11'
p1775
sg13
I0
sg14
F24.32096219062805
sg15
I814
sbsI441
(icore.engine
StatCollection
p1776
(dp1777
g3
I200
sg4
F14.291867971420288
sg5
F16.728966116905212
sg6
I2
sg7
F33.457932233810425
sg8
F16.729026556015015
sg9
S'OK'
p1778
sg11
S'16:37:11'
p1779
sg13
I0
sg14
F33.45805311203003
sg15
I814
sbsI442
(icore.engine
StatCollection
p1780
(dp1781
g3
I200
sg4
F14.773086071014404
sg5
F16.657543540000916
sg6
I2
sg7
F33.31508708000183
sg8
F16.657604575157166
sg9
S'OK'
p1782
sg11
S'16:37:11'
p1783
sg13
I0
sg14
F33.31520915031433
sg15
I814
sbsI443
(icore.engine
StatCollection
p1784
(dp1785
g3
I200
sg4
F13.917160987854004
sg5
F16.075477480888367
sg6
I2
sg7
F32.15095496177673
sg8
F16.07555401325226
sg9
S'OK'
p1786
sg11
S'16:37:11'
p1787
sg13
I0
sg14
F32.15110802650452
sg15
I814
sbsI444
(icore.engine
StatCollection
p1788
(dp1789
g3
I200
sg4
F14.182270050048828
sg5
F16.655275464057922
sg6
I2
sg7
F33.310550928115845
sg8
F16.655364513397217
sg9
S'OK'
p1790
sg11
S'16:37:11'
p1791
sg13
I0
sg14
F33.310729026794434
sg15
I814
sbsI445
(icore.engine
StatCollection
p1792
(dp1793
g3
I200
sg4
F14.359269142150879
sg5
F16.72153615951538
sg6
I2
sg7
F33.44307231903076
sg8
F16.72159254550934
sg9
S'OK'
p1794
sg11
S'16:37:11'
p1795
sg13
I0
sg14
F33.44318509101868
sg15
I814
sbsI446
(icore.engine
StatCollection
p1796
(dp1797
g3
I200
sg4
F14.22700810432434
sg5
F16.690359473228455
sg6
I2
sg7
F33.38071894645691
sg8
F16.690430521965027
sg9
S'OK'
p1798
sg11
S'16:37:11'
p1799
sg13
I0
sg14
F33.380861043930054
sg15
I814
sbsI447
(icore.engine
StatCollection
p1800
(dp1801
g3
I200
sg4
F14.618518829345703
sg5
F16.45050549507141
sg6
I2
sg7
F32.90101099014282
sg8
F16.450581431388855
sg9
S'OK'
p1802
sg11
S'16:37:11'
p1803
sg13
I0
sg14
F32.90116286277771
sg15
I814
sbsI448
(icore.engine
StatCollection
p1804
(dp1805
g3
I200
sg4
F14.521760940551758
sg5
F15.570898532867432
sg6
I2
sg7
F31.141797065734863
sg8
F15.570972919464111
sg9
S'OK'
p1806
sg11
S'16:37:11'
p1807
sg13
I0
sg14
F31.141945838928223
sg15
I814
sbsI449
(icore.engine
StatCollection
p1808
(dp1809
g3
I200
sg4
F14.226423025131226
sg5
F14.64189898967743
sg6
I2
sg7
F29.28379797935486
sg8
F14.642004013061523
sg9
S'OK'
p1810
sg11
S'16:37:11'
p1811
sg13
I0
sg14
F29.284008026123047
sg15
I814
sbsI450
(icore.engine
StatCollection
p1812
(dp1813
g3
I200
sg4
F14.978636026382446
sg5
F16.62752139568329
sg6
I2
sg7
F33.25504279136658
sg8
F16.62758207321167
sg9
S'OK'
p1814
sg11
S'16:37:11'
p1815
sg13
I0
sg14
F33.25516414642334
sg15
I814
sbsI451
(icore.engine
StatCollection
p1816
(dp1817
g3
I200
sg4
F19.467632055282593
sg5
F19.467578172683716
sg6
I1
sg7
F19.467578172683716
sg8
F19.467632055282593
sg9
S'OK'
p1818
sg11
S'16:37:11'
p1819
sg13
I0
sg14
F19.467632055282593
sg15
I407
sbsI452
(icore.engine
StatCollection
p1820
(dp1821
g3
I200
sg4
F14.876732110977173
sg5
F16.54665756225586
sg6
I2
sg7
F33.09331512451172
sg8
F16.54672408103943
sg9
S'OK'
p1822
sg11
S'16:37:11'
p1823
sg13
I0
sg14
F33.09344816207886
sg15
I814
sbsI453
(icore.engine
StatCollection
p1824
(dp1825
g3
I200
sg4
F14.147818088531494
sg5
F16.183112382888794
sg6
I2
sg7
F32.36622476577759
sg8
F16.18317997455597
sg9
S'OK'
p1826
sg11
S'16:37:11'
p1827
sg13
I0
sg14
F32.36635994911194
sg15
I814
sbsI454
(icore.engine
StatCollection
p1828
(dp1829
g3
I200
sg4
F11.201473951339722
sg5
F12.530227899551392
sg6
I2
sg7
F25.060455799102783
sg8
F12.53031837940216
sg9
S'OK'
p1830
sg11
S'16:37:11'
p1831
sg13
I0
sg14
F25.06063675880432
sg15
I814
sbsI455
(icore.engine
StatCollection
p1832
(dp1833
g3
I200
sg4
F14.288403034210205
sg5
F16.675816535949707
sg6
I2
sg7
F33.351633071899414
sg8
F16.6758975982666
sg9
S'OK'
p1834
sg11
S'16:37:11'
p1835
sg13
I0
sg14
F33.3517951965332
sg15
I814
sbsI456
(icore.engine
StatCollection
p1836
(dp1837
g3
I200
sg4
F14.018744945526123
sg5
F14.118669986724854
sg6
I2
sg7
F28.237339973449707
sg8
F14.11875057220459
sg9
S'OK'
p1838
sg11
S'16:37:11'
p1839
sg13
I0
sg14
F28.23750114440918
sg15
I814
sbsI457
(icore.engine
StatCollection
p1840
(dp1841
g3
I200
sg4
F14.873801946640015
sg5
F16.684829592704773
sg6
I2
sg7
F33.369659185409546
sg8
F16.68491554260254
sg9
S'OK'
p1842
sg11
S'16:37:11'
p1843
sg13
I0
sg14
F33.36983108520508
sg15
I814
sbsI458
(icore.engine
StatCollection
p1844
(dp1845
g3
I200
sg4
F14.251379013061523
sg5
F16.718386054039
sg6
I2
sg7
F33.436772108078
sg8
F16.718443512916565
sg9
S'OK'
p1846
sg11
S'16:37:11'
p1847
sg13
I0
sg14
F33.43688702583313
sg15
I814
sbsI459
(icore.engine
StatCollection
p1848
(dp1849
g3
I200
sg4
F11.31131887435913
sg5
F13.137069582939148
sg6
I2
sg7
F26.274139165878296
sg8
F13.137145519256592
sg9
S'OK'
p1850
sg11
S'16:37:11'
p1851
sg13
I0
sg14
F26.274291038513184
sg15
I814
sbsI460
(icore.engine
StatCollection
p1852
(dp1853
g3
I200
sg4
F14.607097864151001
sg5
F16.40903651714325
sg6
I2
sg7
F32.8180730342865
sg8
F16.40911293029785
sg9
S'OK'
p1854
sg11
S'16:37:11'
p1855
sg13
I0
sg14
F32.8182258605957
sg15
I814
sbsI461
(icore.engine
StatCollection
p1856
(dp1857
g3
I200
sg4
F14.302145004272461
sg5
F16.719701051712036
sg6
I2
sg7
F33.43940210342407
sg8
F16.719768524169922
sg9
S'OK'
p1858
sg11
S'16:37:11'
p1859
sg13
I0
sg14
F33.439537048339844
sg15
I814
sbsI462
(icore.engine
StatCollection
p1860
(dp1861
g3
I200
sg4
F12.400333166122437
sg5
F14.931824088096619
sg6
I2
sg7
F29.863648176193237
sg8
F14.931900143623352
sg9
S'OK'
p1862
sg11
S'16:37:11'
p1863
sg13
I0
sg14
F29.863800287246704
sg15
I814
sbsI463
(icore.engine
StatCollection
p1864
(dp1865
g3
I200
sg4
F13.94187593460083
sg5
F16.081717014312744
sg6
I2
sg7
F32.16343402862549
sg8
F16.081785559654236
sg9
S'OK'
p1866
sg11
S'16:37:11'
p1867
sg13
I0
sg14
F32.16357111930847
sg15
I814
sbsI464
(icore.engine
StatCollection
p1868
(dp1869
g3
I200
sg4
F14.432780027389526
sg5
F16.469565987586975
sg6
I2
sg7
F32.93913197517395
sg8
F16.469648957252502
sg9
S'OK'
p1870
sg11
S'16:37:11'
p1871
sg13
I0
sg14
F32.939297914505005
sg15
I814
sbsI465
(icore.engine
StatCollection
p1872
(dp1873
g3
I200
sg4
F15.453723907470703
sg5
F16.60260498523712
sg6
I2
sg7
F33.20520997047424
sg8
F16.602688908576965
sg9
S'OK'
p1874
sg11
S'16:37:11'
p1875
sg13
I0
sg14
F33.20537781715393
sg15
I814
sbsI466
(icore.engine
StatCollection
p1876
(dp1877
g3
I200
sg4
F20.846280097961426
sg5
F20.846184015274048
sg6
I1
sg7
F20.846184015274048
sg8
F20.846280097961426
sg9
S'OK'
p1878
sg11
S'16:37:11'
p1879
sg13
I0
sg14
F20.846280097961426
sg15
I407
sbsI467
(icore.engine
StatCollection
p1880
(dp1881
g3
I200
sg4
F19.909961938858032
sg5
F19.90990900993347
sg6
I1
sg7
F19.90990900993347
sg8
F19.909961938858032
sg9
S'OK'
p1882
sg11
S'16:37:11'
p1883
sg13
I0
sg14
F19.909961938858032
sg15
I407
sbsI468
(icore.engine
StatCollection
p1884
(dp1885
g3
I200
sg4
F20.264416933059692
sg5
F20.26427698135376
sg6
I1
sg7
F20.26427698135376
sg8
F20.264416933059692
sg9
S'OK'
p1886
sg11
S'16:37:11'
p1887
sg13
I0
sg14
F20.264416933059692
sg15
I407
sbsI469
(icore.engine
StatCollection
p1888
(dp1889
g3
I200
sg4
F13.085845947265625
sg5
F15.670898079872131
sg6
I2
sg7
F31.341796159744263
sg8
F15.6709725856781
sg9
S'OK'
p1890
sg11
S'16:37:11'
p1891
sg13
I0
sg14
F31.3419451713562
sg15
I814
sbsI470
(icore.engine
StatCollection
p1892
(dp1893
g3
I200
sg4
F19.482449769973755
sg5
F19.482375860214233
sg6
I1
sg7
F19.482375860214233
sg8
F19.482449769973755
sg9
S'OK'
p1894
sg11
S'16:37:11'
p1895
sg13
I0
sg14
F19.482449769973755
sg15
I407
sbsI471
(icore.engine
StatCollection
p1896
(dp1897
g3
I200
sg4
F15.118450164794922
sg5
F15.682699084281921
sg6
I2
sg7
F31.365398168563843
sg8
F15.682778120040894
sg9
S'OK'
p1898
sg11
S'16:37:11'
p1899
sg13
I0
sg14
F31.365556240081787
sg15
I814
sbsI472
(icore.engine
StatCollection
p1900
(dp1901
g3
I200
sg4
F13.868273973464966
sg5
F16.457579016685486
sg6
I2
sg7
F32.91515803337097
sg8
F16.457641005516052
sg9
S'OK'
p1902
sg11
S'16:37:11'
p1903
sg13
I0
sg14
F32.915282011032104
sg15
I814
sbsI473
(icore.engine
StatCollection
p1904
(dp1905
g3
I200
sg4
F13.419381856918335
sg5
F16.123036980628967
sg6
I2
sg7
F32.246073961257935
sg8
F16.12311589717865
sg9
S'OK'
p1906
sg11
S'16:37:11'
p1907
sg13
I0
sg14
F32.2462317943573
sg15
I814
sbsI474
(icore.engine
StatCollection
p1908
(dp1909
g3
I200
sg4
F13.115957975387573
sg5
F15.651737570762634
sg6
I2
sg7
F31.30347514152527
sg8
F15.651814579963684
sg9
S'OK'
p1910
sg11
S'16:37:11'
p1911
sg13
I0
sg14
F31.303629159927368
sg15
I814
sbsI475
(icore.engine
StatCollection
p1912
(dp1913
g3
I200
sg4
F14.958765029907227
sg5
F16.70851445198059
sg6
I2
sg7
F33.41702890396118
sg8
F16.708585023880005
sg9
S'OK'
p1914
sg11
S'16:37:11'
p1915
sg13
I0
sg14
F33.41717004776001
sg15
I814
sbsI476
(icore.engine
StatCollection
p1916
(dp1917
g3
I200
sg4
F14.891736030578613
sg5
F16.657727479934692
sg6
I2
sg7
F33.315454959869385
sg8
F16.657811045646667
sg9
S'OK'
p1918
sg11
S'16:37:11'
p1919
sg13
I0
sg14
F33.315622091293335
sg15
I814
sbsI477
(icore.engine
StatCollection
p1920
(dp1921
g3
I200
sg4
F19.856573820114136
sg5
F19.85649085044861
sg6
I1
sg7
F19.85649085044861
sg8
F19.856573820114136
sg9
S'OK'
p1922
sg11
S'16:37:11'
p1923
sg13
I0
sg14
F19.856573820114136
sg15
I407
sbsI478
(icore.engine
StatCollection
p1924
(dp1925
g3
I200
sg4
F14.664056777954102
sg5
F16.613012433052063
sg6
I2
sg7
F33.226024866104126
sg8
F16.613080859184265
sg9
S'OK'
p1926
sg11
S'16:37:11'
p1927
sg13
I0
sg14
F33.22616171836853
sg15
I814
sbsI479
(icore.engine
StatCollection
p1928
(dp1929
g3
I200
sg4
F19.523487091064453
sg5
F19.523412942886353
sg6
I1
sg7
F19.523412942886353
sg8
F19.523487091064453
sg9
S'OK'
p1930
sg11
S'16:37:11'
p1931
sg13
I0
sg14
F19.523487091064453
sg15
I407
sbsI480
(icore.engine
StatCollection
p1932
(dp1933
g3
I200
sg4
F13.949821949005127
sg5
F16.448980450630188
sg6
I2
sg7
F32.897960901260376
sg8
F16.44904887676239
sg9
S'OK'
p1934
sg11
S'16:37:11'
p1935
sg13
I0
sg14
F32.89809775352478
sg15
I814
sbsI481
(icore.engine
StatCollection
p1936
(dp1937
g3
I200
sg4
F13.641470909118652
sg5
F16.051892518997192
sg6
I2
sg7
F32.103785037994385
sg8
F16.051955938339233
sg9
S'OK'
p1938
sg11
S'16:37:11'
p1939
sg13
I0
sg14
F32.10391187667847
sg15
I814
sbsI482
(icore.engine
StatCollection
p1940
(dp1941
g3
I200
sg4
F13.974275827407837
sg5
F16.22527587413788
sg6
I2
sg7
F32.45055174827576
sg8
F16.225351333618164
sg9
S'OK'
p1942
sg11
S'16:37:11'
p1943
sg13
I0
sg14
F32.45070266723633
sg15
I814
sbsI483
(icore.engine
StatCollection
p1944
(dp1945
g3
I200
sg4
F13.82332992553711
sg5
F16.465051889419556
sg6
I2
sg7
F32.93010377883911
sg8
F16.465122938156128
sg9
S'OK'
p1946
sg11
S'16:37:11'
p1947
sg13
I0
sg14
F32.930245876312256
sg15
I814
sbsI484
(icore.engine
StatCollection
p1948
(dp1949
g3
I200
sg4
F12.648452043533325
sg5
F15.636461973190308
sg6
I2
sg7
F31.272923946380615
sg8
F15.63652503490448
sg9
S'OK'
p1950
sg11
S'16:37:11'
p1951
sg13
I0
sg14
F31.27305006980896
sg15
I814
sbsI485
(icore.engine
StatCollection
p1952
(dp1953
g3
I200
sg4
F11.973899126052856
sg5
F14.628210544586182
sg6
I2
sg7
F29.256421089172363
sg8
F14.628303050994873
sg9
S'OK'
p1954
sg11
S'16:37:11'
p1955
sg13
I0
sg14
F29.256606101989746
sg15
I814
sbsI486
(icore.engine
StatCollection
p1956
(dp1957
g3
I200
sg4
F14.463388919830322
sg5
F16.45854949951172
sg6
I2
sg7
F32.91709899902344
sg8
F16.459702491760254
sg9
S'OK'
p1958
sg11
S'16:37:11'
p1959
sg13
I0
sg14
F32.91940498352051
sg15
I814
sbsI487
(icore.engine
StatCollection
p1960
(dp1961
g3
I200
sg4
F14.641858100891113
sg5
F16.49169099330902
sg6
I2
sg7
F32.98338198661804
sg8
F16.491758584976196
sg9
S'OK'
p1962
sg11
S'16:37:11'
p1963
sg13
I0
sg14
F32.98351716995239
sg15
I814
sbsI488
(icore.engine
StatCollection
p1964
(dp1965
g3
I200
sg4
F15.059935092926025
sg5
F16.645923018455505
sg6
I2
sg7
F33.29184603691101
sg8
F16.64597761631012
sg9
S'OK'
p1966
sg11
S'16:37:11'
p1967
sg13
I0
sg14
F33.29195523262024
sg15
I814
sbsI489
(icore.engine
StatCollection
p1968
(dp1969
g3
I200
sg4
F14.447536945343018
sg5
F16.62324893474579
sg6
I2
sg7
F33.24649786949158
sg8
F16.623321890830994
sg9
S'OK'
p1970
sg11
S'16:37:11'
p1971
sg13
I0
sg14
F33.24664378166199
sg15
I814
sbsI490
(icore.engine
StatCollection
p1972
(dp1973
g3
I200
sg4
F14.815454006195068
sg5
F16.638708114624023
sg6
I2
sg7
F33.27741622924805
sg8
F16.638797521591187
sg9
S'OK'
p1974
sg11
S'16:37:11'
p1975
sg13
I0
sg14
F33.27759504318237
sg15
I814
sbsI491
(icore.engine
StatCollection
p1976
(dp1977
g3
I200
sg4
F19.90168595314026
sg5
F19.901592016220093
sg6
I1
sg7
F19.901592016220093
sg8
F19.90168595314026
sg9
S'OK'
p1978
sg11
S'16:37:11'
p1979
sg13
I0
sg14
F19.90168595314026
sg15
I407
sbsI492
(icore.engine
StatCollection
p1980
(dp1981
g3
I200
sg4
F15.461208820343018
sg5
F16.062291502952576
sg6
I2
sg7
F32.12458300590515
sg8
F16.062384486198425
sg9
S'OK'
p1982
sg11
S'16:37:11'
p1983
sg13
I0
sg14
F32.12476897239685
sg15
I814
sbsI493
(icore.engine
StatCollection
p1984
(dp1985
g3
I200
sg4
F14.061469078063965
sg5
F16.563028931617737
sg6
I2
sg7
F33.126057863235474
sg8
F16.563111543655396
sg9
S'OK'
p1986
sg11
S'16:37:11'
p1987
sg13
I0
sg14
F33.12622308731079
sg15
I814
sbsI494
(icore.engine
StatCollection
p1988
(dp1989
g3
I200
sg4
F14.85254693031311
sg5
F16.656967043876648
sg6
I2
sg7
F33.313934087753296
sg8
F16.657029032707214
sg9
S'OK'
p1990
sg11
S'16:37:11'
p1991
sg13
I0
sg14
F33.31405806541443
sg15
I814
sbsI495
(icore.engine
StatCollection
p1992
(dp1993
g3
I200
sg4
F14.286457061767578
sg5
F16.373878479003906
sg6
I2
sg7
F32.74775695800781
sg8
F16.373939514160156
sg9
S'OK'
p1994
sg11
S'16:37:11'
p1995
sg13
I0
sg14
F32.74787902832031
sg15
I814
sbsI496
(icore.engine
StatCollection
p1996
(dp1997
g3
I200
sg4
F20.50441884994507
sg5
F20.504326820373535
sg6
I1
sg7
F20.504326820373535
sg8
F20.50441884994507
sg9
S'OK'
p1998
sg11
S'16:37:11'
p1999
sg13
I0
sg14
F20.50441884994507
sg15
I407
sbsI497
(icore.engine
StatCollection
p2000
(dp2001
g3
I200
sg4
F14.848206996917725
sg5
F16.529627084732056
sg6
I2
sg7
F33.05925416946411
sg8
F16.529707551002502
sg9
S'OK'
p2002
sg11
S'16:37:11'
p2003
sg13
I0
sg14
F33.059415102005005
sg15
I814
sbsI498
(icore.engine
StatCollection
p2004
(dp2005
g3
I200
sg4
F14.76959490776062
sg5
F16.605739951133728
sg6
I2
sg7
F33.211479902267456
sg8
F16.605871438980103
sg9
S'OK'
p2006
sg11
S'16:37:11'
p2007
sg13
I0
sg14
F33.211742877960205
sg15
I814
sbsI499
(icore.engine
StatCollection
p2008
(dp2009
g3
I200
sg4
F14.75306487083435
sg5
F16.60993242263794
sg6
I2
sg7
F33.21986484527588
sg8
F16.610013961791992
sg9
S'OK'
p2010
sg11
S'16:37:11'
p2011
sg13
I0
sg14
F33.220027923583984
sg15
I814
sbs.