(dp0
I0
(icore.engine
StatCollection
p1
(dp2
S'status'
p3
I200
sS'latency'
p4
F15.96325397491455
sS'avg_connect_latency'
p5
F13.177414417266846
sS'count'
p6
I2
sS'total_connect_latency'
p7
F26.35482883453369
sS'avg_latency'
p8
F13.17754352092743
sS'reason'
p9
S'OK'
p10
sS'agent_start_time'
p11
S'14:10:25'
p12
sS'error_count'
p13
I0
sS'total_latency'
p14
F26.35508704185486
sS'total_bytes'
p15
I814
sbsI1
(icore.engine
StatCollection
p16
(dp17
g3
I200
sg4
F15.06787919998169
sg5
F14.322237610816956
sg6
I2
sg7
F28.64447522163391
sg8
F14.32232666015625
sg9
S'OK'
p18
sg11
S'14:10:25'
p19
sg13
I0
sg14
F28.6446533203125
sg15
I814
sbsI2
(icore.engine
StatCollection
p20
(dp21
g3
I200
sg4
F11.044104099273682
sg5
F12.125651478767395
sg6
I2
sg7
F24.25130295753479
sg8
F12.125774502754211
sg9
S'OK'
p22
sg11
S'14:10:25'
p23
sg13
I0
sg14
F24.251549005508423
sg15
I814
sbsI3
(icore.engine
StatCollection
p24
(dp25
g3
I200
sg4
F16.563436031341553
sg5
F15.398872017860413
sg6
I2
sg7
F30.797744035720825
sg8
F15.398960590362549
sg9
S'OK'
p26
sg11
S'14:10:25'
p27
sg13
I0
sg14
F30.797921180725098
sg15
I814
sbsI4
(icore.engine
StatCollection
p28
(dp29
g3
I200
sg4
F14.761973857879639
sg5
F14.703258514404297
sg6
I2
sg7
F29.406517028808594
sg8
F14.703344941139221
sg9
S'OK'
p30
sg11
S'14:10:25'
p31
sg13
I0
sg14
F29.406689882278442
sg15
I814
sbsI5
(icore.engine
StatCollection
p32
(dp33
g3
I200
sg4
F14.484352827072144
sg5
F13.188220381736755
sg6
I2
sg7
F26.37644076347351
sg8
F13.188316941261292
sg9
S'OK'
p34
sg11
S'14:10:25'
p35
sg13
I0
sg14
F26.376633882522583
sg15
I814
sbsI6
(icore.engine
StatCollection
p36
(dp37
g3
I200
sg4
F14.918653964996338
sg5
F13.994256019592285
sg6
I2
sg7
F27.98851203918457
sg8
F13.994343996047974
sg9
S'OK'
p38
sg11
S'14:10:25'
p39
sg13
I0
sg14
F27.988687992095947
sg15
I814
sbsI7
(icore.engine
StatCollection
p40
(dp41
g3
I200
sg4
F17.248507976531982
sg5
F15.040584087371826
sg6
I2
sg7
F30.081168174743652
sg8
F15.040713548660278
sg9
S'OK'
p42
sg11
S'14:10:25'
p43
sg13
I0
sg14
F30.081427097320557
sg15
I814
sbsI8
(icore.engine
StatCollection
p44
(dp45
g3
I200
sg4
F14.266959190368652
sg5
F14.440389037132263
sg6
I2
sg7
F28.880778074264526
sg8
F14.440492033958435
sg9
S'OK'
p46
sg11
S'14:10:25'
p47
sg13
I0
sg14
F28.88098406791687
sg15
I814
sbsI9
(icore.engine
StatCollection
p48
(dp49
g3
I200
sg4
F13.646183967590332
sg5
F13.156145930290222
sg6
I2
sg7
F26.312291860580444
sg8
F13.156228065490723
sg9
S'OK'
p50
sg11
S'14:10:25'
p51
sg13
I0
sg14
F26.312456130981445
sg15
I814
sbsI10
(icore.engine
StatCollection
p52
(dp53
g3
I200
sg4
F14.57722282409668
sg5
F13.116358399391174
sg6
I2
sg7
F26.23271679878235
sg8
F13.116497874259949
sg9
S'OK'
p54
sg11
S'14:10:25'
p55
sg13
I0
sg14
F26.232995748519897
sg15
I814
sbsI11
(icore.engine
StatCollection
p56
(dp57
g3
I200
sg4
F13.546171188354492
sg5
F13.8528391122818
sg6
I2
sg7
F27.7056782245636
sg8
F13.852921605110168
sg9
S'OK'
p58
sg11
S'14:10:25'
p59
sg13
I0
sg14
F27.705843210220337
sg15
I814
sbsI12
(icore.engine
StatCollection
p60
(dp61
g3
I200
sg4
F13.229971885681152
sg5
F13.134340524673462
sg6
I2
sg7
F26.268681049346924
sg8
F13.134445428848267
sg9
S'OK'
p62
sg11
S'14:10:25'
p63
sg13
I0
sg14
F26.268890857696533
sg15
I814
sbsI13
(icore.engine
StatCollection
p64
(dp65
g3
I200
sg4
F12.280200958251953
sg5
F14.01501739025116
sg6
I2
sg7
F28.03003478050232
sg8
F14.015126943588257
sg9
S'OK'
p66
sg11
S'14:10:25'
p67
sg13
I0
sg14
F28.030253887176514
sg15
I814
sbsI14
(icore.engine
StatCollection
p68
(dp69
g3
I200
sg4
F14.518347024917603
sg5
F16.966961979866028
sg6
I2
sg7
F33.933923959732056
sg8
F16.967036962509155
sg9
S'OK'
p70
sg11
S'14:10:25'
p71
sg13
I0
sg14
F33.93407392501831
sg15
I814
sbsI15
(icore.engine
StatCollection
p72
(dp73
g3
I200
sg4
F15.20081114768982
sg5
F13.320759057998657
sg6
I2
sg7
F26.641518115997314
sg8
F13.320836544036865
sg9
S'OK'
p74
sg11
S'14:10:25'
p75
sg13
I0
sg14
F26.64167308807373
sg15
I814
sbsI16
(icore.engine
StatCollection
p76
(dp77
g3
I200
sg4
F13.468801975250244
sg5
F14.02472710609436
sg6
I2
sg7
F28.04945421218872
sg8
F14.02482807636261
sg9
S'OK'
p78
sg11
S'14:10:25'
p79
sg13
I0
sg14
F28.04965615272522
sg15
I814
sbsI17
(icore.engine
StatCollection
p80
(dp81
g3
I200
sg4
F13.480926990509033
sg5
F16.268250465393066
sg6
I2
sg7
F32.53650093078613
sg8
F16.268360018730164
sg9
S'OK'
p82
sg11
S'14:10:25'
p83
sg13
I0
sg14
F32.53672003746033
sg15
I814
sbsI18
(icore.engine
StatCollection
p84
(dp85
g3
I200
sg4
F15.597947835922241
sg5
F14.82253646850586
sg6
I2
sg7
F29.64507293701172
sg8
F14.822618961334229
sg9
S'OK'
p86
sg11
S'14:10:25'
p87
sg13
I0
sg14
F29.645237922668457
sg15
I814
sbsI19
(icore.engine
StatCollection
p88
(dp89
g3
I200
sg4
F15.320327043533325
sg5
F15.160443663597107
sg6
I2
sg7
F30.320887327194214
sg8
F15.160590052604675
sg9
S'OK'
p90
sg11
S'14:10:25'
p91
sg13
I0
sg14
F30.32118010520935
sg15
I814
sbsI20
(icore.engine
StatCollection
p92
(dp93
g3
I200
sg4
F15.29824686050415
sg5
F15.107622981071472
sg6
I2
sg7
F30.215245962142944
sg8
F15.107728362083435
sg9
S'OK'
p94
sg11
S'14:10:25'
p95
sg13
I0
sg14
F30.21545672416687
sg15
I814
sbsI21
(icore.engine
StatCollection
p96
(dp97
g3
I200
sg4
F10.874941110610962
sg5
F11.241219878196716
sg6
I2
sg7
F22.482439756393433
sg8
F11.241338968276978
sg9
S'OK'
p98
sg11
S'14:10:25'
p99
sg13
I0
sg14
F22.482677936553955
sg15
I814
sbsI22
(icore.engine
StatCollection
p100
(dp101
g3
I200
sg4
F13.29108190536499
sg5
F16.167495489120483
sg6
I2
sg7
F32.33499097824097
sg8
F16.16756248474121
sg9
S'OK'
p102
sg11
S'14:10:25'
p103
sg13
I0
sg14
F32.33512496948242
sg15
I814
sbsI23
(icore.engine
StatCollection
p104
(dp105
g3
I200
sg4
F13.378208875656128
sg5
F14.129238843917847
sg6
I2
sg7
F28.258477687835693
sg8
F14.129319906234741
sg9
S'OK'
p106
sg11
S'14:10:25'
p107
sg13
I0
sg14
F28.258639812469482
sg15
I814
sbsI24
(icore.engine
StatCollection
p108
(dp109
g3
I200
sg4
F13.54259204864502
sg5
F16.4611759185791
sg6
I2
sg7
F32.9223518371582
sg8
F16.461262464523315
sg9
S'OK'
p110
sg11
S'14:10:25'
p111
sg13
I0
sg14
F32.92252492904663
sg15
I814
sbsI25
(icore.engine
StatCollection
p112
(dp113
g3
I200
sg4
F14.62879204750061
sg5
F14.20904290676117
sg6
I2
sg7
F28.41808581352234
sg8
F14.20911991596222
sg9
S'OK'
p114
sg11
S'14:10:25'
p115
sg13
I0
sg14
F28.41823983192444
sg15
I814
sbsI26
(icore.engine
StatCollection
p116
(dp117
g3
I200
sg4
F10.873827934265137
sg5
F12.398374080657959
sg6
I2
sg7
F24.796748161315918
sg8
F12.398486971855164
sg9
S'OK'
p118
sg11
S'14:10:25'
p119
sg13
I0
sg14
F24.796973943710327
sg15
I814
sbsI27
(icore.engine
StatCollection
p120
(dp121
g3
I200
sg4
F14.229269027709961
sg5
F14.064770936965942
sg6
I2
sg7
F28.129541873931885
sg8
F14.064878463745117
sg9
S'OK'
p122
sg11
S'14:10:25'
p123
sg13
I0
sg14
F28.129756927490234
sg15
I814
sbsI28
(icore.engine
StatCollection
p124
(dp125
g3
I200
sg4
F13.890184164047241
sg5
F14.054311037063599
sg6
I2
sg7
F28.108622074127197
sg8
F14.054433584213257
sg9
S'OK'
p126
sg11
S'14:10:25'
p127
sg13
I0
sg14
F28.108867168426514
sg15
I814
sbsI29
(icore.engine
StatCollection
p128
(dp129
g3
I200
sg4
F15.517376184463501
sg5
F14.984471559524536
sg6
I2
sg7
F29.968943119049072
sg8
F14.98455548286438
sg9
S'OK'
p130
sg11
S'14:10:25'
p131
sg13
I0
sg14
F29.96911096572876
sg15
I814
sbsI30
(icore.engine
StatCollection
p132
(dp133
g3
I200
sg4
F13.779911041259766
sg5
F14.460330605506897
sg6
I2
sg7
F28.920661211013794
sg8
F14.460443496704102
sg9
S'OK'
p134
sg11
S'14:10:25'
p135
sg13
I0
sg14
F28.920886993408203
sg15
I814
sbsI31
(icore.engine
StatCollection
p136
(dp137
g3
I200
sg4
F13.821694135665894
sg5
F14.748652577400208
sg6
I2
sg7
F29.497305154800415
sg8
F14.748765110969543
sg9
S'OK'
p138
sg11
S'14:10:25'
p139
sg13
I0
sg14
F29.497530221939087
sg15
I814
sbsI32
(icore.engine
StatCollection
p140
(dp141
g3
I200
sg4
F15.317598104476929
sg5
F15.260398626327515
sg6
I2
sg7
F30.52079725265503
sg8
F15.260497093200684
sg9
S'OK'
p142
sg11
S'14:10:25'
p143
sg13
I0
sg14
F30.520994186401367
sg15
I814
sbsI33
(icore.engine
StatCollection
p144
(dp145
g3
I200
sg4
F16.171926021575928
sg5
F15.993233919143677
sg6
I2
sg7
F31.986467838287354
sg8
F15.993330478668213
sg9
S'OK'
p146
sg11
S'14:10:25'
p147
sg13
I0
sg14
F31.986660957336426
sg15
I814
sbsI34
(icore.engine
StatCollection
p148
(dp149
g3
I200
sg4
F11.528440952301025
sg5
F14.710153460502625
sg6
I2
sg7
F29.42030692100525
sg8
F14.710253477096558
sg9
S'OK'
p150
sg11
S'14:10:25'
p151
sg13
I0
sg14
F29.420506954193115
sg15
I814
sbsI35
(icore.engine
StatCollection
p152
(dp153
g3
I200
sg4
F13.424638986587524
sg5
F16.22305989265442
sg6
I2
sg7
F32.44611978530884
sg8
F16.22312891483307
sg9
S'OK'
p154
sg11
S'14:10:25'
p155
sg13
I0
sg14
F32.44625782966614
sg15
I814
sbsI36
(icore.engine
StatCollection
p156
(dp157
g3
I200
sg4
F12.81342887878418
sg5
F13.374465942382812
sg6
I2
sg7
F26.748931884765625
sg8
F13.374555945396423
sg9
S'OK'
p158
sg11
S'14:10:25'
p159
sg13
I0
sg14
F26.749111890792847
sg15
I814
sbsI37
(icore.engine
StatCollection
p160
(dp161
g3
I200
sg4
F13.155637979507446
sg5
F13.324144005775452
sg6
I2
sg7
F26.648288011550903
sg8
F13.324227452278137
sg9
S'OK'
p162
sg11
S'14:10:25'
p163
sg13
I0
sg14
F26.648454904556274
sg15
I814
sbsI38
(icore.engine
StatCollection
p164
(dp165
g3
I200
sg4
F12.42715311050415
sg5
F15.986901044845581
sg6
I2
sg7
F31.973802089691162
sg8
F15.986987471580505
sg9
S'OK'
p166
sg11
S'14:10:25'
p167
sg13
I0
sg14
F31.97397494316101
sg15
I814
sbsI39
(icore.engine
StatCollection
p168
(dp169
g3
I200
sg4
F16.797441005706787
sg5
F13.306141018867493
sg6
I2
sg7
F26.612282037734985
sg8
F13.30626893043518
sg9
S'OK'
p170
sg11
S'14:10:25'
p171
sg13
I0
sg14
F26.61253786087036
sg15
I814
sbsI40
(icore.engine
StatCollection
p172
(dp173
g3
I200
sg4
F17.05514883995056
sg5
F15.553910493850708
sg6
I2
sg7
F31.107820987701416
sg8
F15.553994417190552
sg9
S'OK'
p174
sg11
S'14:10:25'
p175
sg13
I0
sg14
F31.107988834381104
sg15
I814
sbsI41
(icore.engine
StatCollection
p176
(dp177
g3
I200
sg4
F14.730052947998047
sg5
F13.714112520217896
sg6
I2
sg7
F27.42822504043579
sg8
F13.714197993278503
sg9
S'OK'
p178
sg11
S'14:10:25'
p179
sg13
I0
sg14
F27.428395986557007
sg15
I814
sbsI42
(icore.engine
StatCollection
p180
(dp181
g3
I200
sg4
F12.721649885177612
sg5
F14.048117876052856
sg6
I2
sg7
F28.096235752105713
sg8
F14.048206448554993
sg9
S'OK'
p182
sg11
S'14:10:25'
p183
sg13
I0
sg14
F28.096412897109985
sg15
I814
sbsI43
(icore.engine
StatCollection
p184
(dp185
g3
I200
sg4
F15.30293893814087
sg5
F16.732413053512573
sg6
I2
sg7
F33.46482610702515
sg8
F16.73249053955078
sg9
S'OK'
p186
sg11
S'14:10:25'
p187
sg13
I0
sg14
F33.46498107910156
sg15
I814
sbsI44
(icore.engine
StatCollection
p188
(dp189
g3
I200
sg4
F14.911929845809937
sg5
F14.871310472488403
sg6
I2
sg7
F29.742620944976807
sg8
F14.871389865875244
sg9
S'OK'
p190
sg11
S'14:10:25'
p191
sg13
I0
sg14
F29.74277973175049
sg15
I814
sbsI45
(icore.engine
StatCollection
p192
(dp193
g3
I200
sg4
F16.136554956436157
sg5
F15.309030532836914
sg6
I2
sg7
F30.618061065673828
sg8
F15.309090495109558
sg9
S'OK'
p194
sg11
S'14:10:25'
p195
sg13
I0
sg14
F30.618180990219116
sg15
I814
sbsI46
(icore.engine
StatCollection
p196
(dp197
g3
I200
sg4
F15.850875854492188
sg5
F15.151951909065247
sg6
I2
sg7
F30.303903818130493
sg8
F15.152064442634583
sg9
S'OK'
p198
sg11
S'14:10:25'
p199
sg13
I0
sg14
F30.304128885269165
sg15
I814
sbsI47
(icore.engine
StatCollection
p200
(dp201
g3
I200
sg4
F14.933686017990112
sg5
F15.59074056148529
sg6
I2
sg7
F31.18148112297058
sg8
F15.590816617012024
sg9
S'OK'
p202
sg11
S'14:10:25'
p203
sg13
I0
sg14
F31.181633234024048
sg15
I814
sbsI48
(icore.engine
StatCollection
p204
(dp205
g3
I200
sg4
F13.277750968933105
sg5
F16.44428849220276
sg6
I2
sg7
F32.88857698440552
sg8
F16.444352984428406
sg9
S'OK'
p206
sg11
S'14:10:25'
p207
sg13
I0
sg14
F32.88870596885681
sg15
I814
sbsI49
(icore.engine
StatCollection
p208
(dp209
g3
I200
sg4
F12.57371187210083
sg5
F15.95536744594574
sg6
I2
sg7
F31.91073489189148
sg8
F15.955469369888306
sg9
S'OK'
p210
sg11
S'14:10:25'
p211
sg13
I0
sg14
F31.91093873977661
sg15
I814
sbsI50
(icore.engine
StatCollection
p212
(dp213
g3
I200
sg4
F13.871664047241211
sg5
F13.106832504272461
sg6
I2
sg7
F26.213665008544922
sg8
F13.106956601142883
sg9
S'OK'
p214
sg11
S'14:10:25'
p215
sg13
I0
sg14
F26.213913202285767
sg15
I814
sbsI51
(icore.engine
StatCollection
p216
(dp217
g3
I200
sg4
F15.030078887939453
sg5
F17.191652536392212
sg6
I2
sg7
F34.383305072784424
sg8
F17.191717982292175
sg9
S'OK'
p218
sg11
S'14:10:25'
p219
sg13
I0
sg14
F34.38343596458435
sg15
I814
sbsI52
(icore.engine
StatCollection
p220
(dp221
g3
I200
sg4
F13.955299139022827
sg5
F16.27345097064972
sg6
I2
sg7
F32.54690194129944
sg8
F16.273517966270447
sg9
S'OK'
p222
sg11
S'14:10:25'
p223
sg13
I0
sg14
F32.547035932540894
sg15
I814
sbsI53
(icore.engine
StatCollection
p224
(dp225
g3
I200
sg4
F16.626262187957764
sg5
F15.520090103149414
sg6
I2
sg7
F31.040180206298828
sg8
F15.520201683044434
sg9
S'OK'
p226
sg11
S'14:10:25'
p227
sg13
I0
sg14
F31.040403366088867
sg15
I814
sbsI54
(icore.engine
StatCollection
p228
(dp229
g3
I200
sg4
F13.880927085876465
sg5
F16.611320972442627
sg6
I2
sg7
F33.222641944885254
sg8
F16.611390590667725
sg9
S'OK'
p230
sg11
S'14:10:25'
p231
sg13
I0
sg14
F33.22278118133545
sg15
I814
sbsI55
(icore.engine
StatCollection
p232
(dp233
g3
I200
sg4
F16.94414210319519
sg5
F15.813222527503967
sg6
I2
sg7
F31.626445055007935
sg8
F15.813325643539429
sg9
S'OK'
p234
sg11
S'14:10:25'
p235
sg13
I0
sg14
F31.626651287078857
sg15
I814
sbsI56
(icore.engine
StatCollection
p236
(dp237
g3
I200
sg4
F17.028239011764526
sg5
F15.56174099445343
sg6
I2
sg7
F31.12348198890686
sg8
F15.56185495853424
sg9
S'OK'
p238
sg11
S'14:10:25'
p239
sg13
I0
sg14
F31.12370991706848
sg15
I814
sbsI57
(icore.engine
StatCollection
p240
(dp241
g3
I200
sg4
F16.06777000427246
sg5
F14.258517026901245
sg6
I2
sg7
F28.51703405380249
sg8
F14.258621573448181
sg9
S'OK'
p242
sg11
S'14:10:25'
p243
sg13
I0
sg14
F28.517243146896362
sg15
I814
sbsI58
(icore.engine
StatCollection
p244
(dp245
g3
I200
sg4
F12.879909992218018
sg5
F15.932925462722778
sg6
I2
sg7
F31.865850925445557
sg8
F15.933000922203064
sg9
S'OK'
p246
sg11
S'14:10:25'
p247
sg13
I0
sg14
F31.866001844406128
sg15
I814
sbsI59
(icore.engine
StatCollection
p248
(dp249
g3
I200
sg4
F15.04054307937622
sg5
F14.622772932052612
sg6
I2
sg7
F29.245545864105225
sg8
F14.622846007347107
sg9
S'OK'
p250
sg11
S'14:10:25'
p251
sg13
I0
sg14
F29.245692014694214
sg15
I814
sbsI60
(icore.engine
StatCollection
p252
(dp253
g3
I200
sg4
F14.357253074645996
sg5
F14.403772115707397
sg6
I2
sg7
F28.807544231414795
sg8
F14.403873562812805
sg9
S'OK'
p254
sg11
S'14:10:25'
p255
sg13
I0
sg14
F28.80774712562561
sg15
I814
sbsI61
(icore.engine
StatCollection
p256
(dp257
g3
I200
sg4
F14.38921594619751
sg5
F16.861695528030396
sg6
I2
sg7
F33.72339105606079
sg8
F16.861767530441284
sg9
S'OK'
p258
sg11
S'14:10:25'
p259
sg13
I0
sg14
F33.72353506088257
sg15
I814
sbsI62
(icore.engine
StatCollection
p260
(dp261
g3
I200
sg4
F14.409327030181885
sg5
F13.12639856338501
sg6
I2
sg7
F26.25279712677002
sg8
F13.126476526260376
sg9
S'OK'
p262
sg11
S'14:10:25'
p263
sg13
I0
sg14
F26.252953052520752
sg15
I814
sbsI63
(icore.engine
StatCollection
p264
(dp265
g3
I200
sg4
F12.262983083724976
sg5
F13.815083503723145
sg6
I2
sg7
F27.63016700744629
sg8
F13.815155982971191
sg9
S'OK'
p266
sg11
S'14:10:25'
p267
sg13
I0
sg14
F27.630311965942383
sg15
I814
sbsI64
(icore.engine
StatCollection
p268
(dp269
g3
I200
sg4
F18.86700201034546
sg5
F15.79401159286499
sg6
I2
sg7
F31.58802318572998
sg8
F15.794096946716309
sg9
S'OK'
p270
sg11
S'14:10:25'
p271
sg13
I0
sg14
F31.588193893432617
sg15
I814
sbsI65
(icore.engine
StatCollection
p272
(dp273
g3
I200
sg4
F11.422039985656738
sg5
F13.122148156166077
sg6
I2
sg7
F26.244296312332153
sg8
F13.122259974479675
sg9
S'OK'
p274
sg11
S'14:10:25'
p275
sg13
I0
sg14
F26.24451994895935
sg15
I814
sbsI66
(icore.engine
StatCollection
p276
(dp277
g3
I200
sg4
F15.486246109008789
sg5
F15.181295037269592
sg6
I2
sg7
F30.362590074539185
sg8
F15.181408047676086
sg9
S'OK'
p278
sg11
S'14:10:25'
p279
sg13
I0
sg14
F30.362816095352173
sg15
I814
sbsI67
(icore.engine
StatCollection
p280
(dp281
g3
I200
sg4
F12.875186920166016
sg5
F13.319445490837097
sg6
I2
sg7
F26.638890981674194
sg8
F13.319509983062744
sg9
S'OK'
p282
sg11
S'14:10:25'
p283
sg13
I0
sg14
F26.63901996612549
sg15
I814
sbsI68
(icore.engine
StatCollection
p284
(dp285
g3
I200
sg4
F14.52175498008728
sg5
F15.02165138721466
sg6
I2
sg7
F30.04330277442932
sg8
F15.021741509437561
sg9
S'OK'
p286
sg11
S'14:10:25'
p287
sg13
I0
sg14
F30.043483018875122
sg15
I814
sbsI69
(icore.engine
StatCollection
p288
(dp289
g3
I200
sg4
F11.867110013961792
sg5
F15.421812891960144
sg6
I2
sg7
F30.843625783920288
sg8
F15.42191994190216
sg9
S'OK'
p290
sg11
S'14:10:25'
p291
sg13
I0
sg14
F30.84383988380432
sg15
I814
sbsI70
(icore.engine
StatCollection
p292
(dp293
g3
I200
sg4
F13.898063898086548
sg5
F13.128867983818054
sg6
I2
sg7
F26.25773596763611
sg8
F13.12898051738739
sg9
S'OK'
p294
sg11
S'14:10:25'
p295
sg13
I0
sg14
F26.25796103477478
sg15
I814
sbsI71
(icore.engine
StatCollection
p296
(dp297
g3
I200
sg4
F14.006431102752686
sg5
F13.082099437713623
sg6
I2
sg7
F26.164198875427246
sg8
F13.08218801021576
sg9
S'OK'
p298
sg11
S'14:10:25'
p299
sg13
I0
sg14
F26.16437602043152
sg15
I814
sbsI72
(icore.engine
StatCollection
p300
(dp301
g3
I200
sg4
F15.690162181854248
sg5
F15.245476484298706
sg6
I2
sg7
F30.490952968597412
sg8
F15.245588064193726
sg9
S'OK'
p302
sg11
S'14:10:25'
p303
sg13
I0
sg14
F30.49117612838745
sg15
I814
sbsI73
(icore.engine
StatCollection
p304
(dp305
g3
I200
sg4
F14.785737037658691
sg5
F17.178329944610596
sg6
I2
sg7
F34.35665988922119
sg8
F17.178400993347168
sg9
S'OK'
p306
sg11
S'14:10:25'
p307
sg13
I0
sg14
F34.356801986694336
sg15
I814
sbsI74
(icore.engine
StatCollection
p308
(dp309
g3
I200
sg4
F13.18749713897705
sg5
F16.07936155796051
sg6
I2
sg7
F32.15872311592102
sg8
F16.07943105697632
sg9
S'OK'
p310
sg11
S'14:10:25'
p311
sg13
I0
sg14
F32.15886211395264
sg15
I814
sbsI75
(icore.engine
StatCollection
p312
(dp313
g3
I200
sg4
F15.278880834579468
sg5
F13.07900357246399
sg6
I2
sg7
F26.15800714492798
sg8
F13.07907497882843
sg9
S'OK'
p314
sg11
S'14:10:25'
p315
sg13
I0
sg14
F26.15814995765686
sg15
I814
sbsI76
(icore.engine
StatCollection
p316
(dp317
g3
I200
sg4
F12.438079833984375
sg5
F15.702230453491211
sg6
I2
sg7
F31.404460906982422
sg8
F15.702298998832703
sg9
S'OK'
p318
sg11
S'14:10:25'
p319
sg13
I0
sg14
F31.404597997665405
sg15
I814
sbsI77
(icore.engine
StatCollection
p320
(dp321
g3
I200
sg4
F14.262116193771362
sg5
F13.107954025268555
sg6
I2
sg7
F26.21590805053711
sg8
F13.108031153678894
sg9
S'OK'
p322
sg11
S'14:10:25'
p323
sg13
I0
sg14
F26.216062307357788
sg15
I814
sbsI78
(icore.engine
StatCollection
p324
(dp325
g3
I200
sg4
F14.045186042785645
sg5
F14.039454460144043
sg6
I2
sg7
F28.078908920288086
sg8
F14.039539456367493
sg9
S'OK'
p326
sg11
S'14:10:25'
p327
sg13
I0
sg14
F28.079078912734985
sg15
I814
sbsI79
(icore.engine
StatCollection
p328
(dp329
g3
I200
sg4
F16.335839986801147
sg5
F14.688538432121277
sg6
I2
sg7
F29.377076864242554
sg8
F14.688652515411377
sg9
S'OK'
p330
sg11
S'14:10:25'
p331
sg13
I0
sg14
F29.377305030822754
sg15
I814
sbsI80
(icore.engine
StatCollection
p332
(dp333
g3
I200
sg4
F13.960060119628906
sg5
F16.79214298725128
sg6
I2
sg7
F33.58428597450256
sg8
F16.792218565940857
sg9
S'OK'
p334
sg11
S'14:10:25'
p335
sg13
I0
sg14
F33.584437131881714
sg15
I814
sbsI81
(icore.engine
StatCollection
p336
(dp337
g3
I200
sg4
F11.972540855407715
sg5
F13.655356049537659
sg6
I2
sg7
F27.310712099075317
sg8
F13.655449986457825
sg9
S'OK'
p338
sg11
S'14:10:25'
p339
sg13
I0
sg14
F27.31089997291565
sg15
I814
sbsI82
(icore.engine
StatCollection
p340
(dp341
g3
I200
sg4
F16.037782907485962
sg5
F15.220255970954895
sg6
I2
sg7
F30.44051194190979
sg8
F15.220330476760864
sg9
S'OK'
p342
sg11
S'14:10:25'
p343
sg13
I0
sg14
F30.44066095352173
sg15
I814
sbsI83
(icore.engine
StatCollection
p344
(dp345
g3
I200
sg4
F14.855826139450073
sg5
F17.204635620117188
sg6
I2
sg7
F34.409271240234375
sg8
F17.204708576202393
sg9
S'OK'
p346
sg11
S'14:10:25'
p347
sg13
I0
sg14
F34.409417152404785
sg15
I814
sbsI84
(icore.engine
StatCollection
p348
(dp349
g3
I200
sg4
F12.162791967391968
sg5
F13.347556471824646
sg6
I2
sg7
F26.695112943649292
sg8
F13.347632884979248
sg9
S'OK'
p350
sg11
S'14:10:25'
p351
sg13
I0
sg14
F26.695265769958496
sg15
I814
sbsI85
(icore.engine
StatCollection
p352
(dp353
g3
I200
sg4
F14.700464963912964
sg5
F14.319108128547668
sg6
I2
sg7
F28.638216257095337
sg8
F14.319193482398987
sg9
S'OK'
p354
sg11
S'14:10:25'
p355
sg13
I0
sg14
F28.638386964797974
sg15
I814
sbsI86
(icore.engine
StatCollection
p356
(dp357
g3
I200
sg4
F15.170009136199951
sg5
F17.0589200258255
sg6
I2
sg7
F34.117840051651
sg8
F17.058992505073547
sg9
S'OK'
p358
sg11
S'14:10:25'
p359
sg13
I0
sg14
F34.117985010147095
sg15
I814
sbsI87
(icore.engine
StatCollection
p360
(dp361
g3
I200
sg4
F13.357873916625977
sg5
F12.345674514770508
sg6
I2
sg7
F24.691349029541016
sg8
F12.345824003219604
sg9
S'OK'
p362
sg11
S'14:10:25'
p363
sg13
I0
sg14
F24.69164800643921
sg15
I814
sbsI88
(icore.engine
StatCollection
p364
(dp365
g3
I200
sg4
F15.107666015625
sg5
F17.02069902420044
sg6
I2
sg7
F34.04139804840088
sg8
F17.020779490470886
sg9
S'OK'
p366
sg11
S'14:10:25'
p367
sg13
I0
sg14
F34.04155898094177
sg15
I814
sbsI89
(icore.engine
StatCollection
p368
(dp369
g3
I200
sg4
F15.478482007980347
sg5
F14.783760070800781
sg6
I2
sg7
F29.567520141601562
sg8
F14.783862590789795
sg9
S'OK'
p370
sg11
S'14:10:25'
p371
sg13
I0
sg14
F29.56772518157959
sg15
I814
sbsI90
(icore.engine
StatCollection
p372
(dp373
g3
I200
sg4
F14.98251986503601
sg5
F14.838191986083984
sg6
I2
sg7
F29.67638397216797
sg8
F14.83830440044403
sg9
S'OK'
p374
sg11
S'14:10:25'
p375
sg13
I0
sg14
F29.67660880088806
sg15
I814
sbsI91
(icore.engine
StatCollection
p376
(dp377
g3
I200
sg4
F12.535751104354858
sg5
F15.744725584983826
sg6
I2
sg7
F31.48945116996765
sg8
F15.744802474975586
sg9
S'OK'
p378
sg11
S'14:10:25'
p379
sg13
I0
sg14
F31.489604949951172
sg15
I814
sbsI92
(icore.engine
StatCollection
p380
(dp381
g3
I200
sg4
F14.784167051315308
sg5
F17.177253484725952
sg6
I2
sg7
F34.354506969451904
sg8
F17.17731499671936
sg9
S'OK'
p382
sg11
S'14:10:25'
p383
sg13
I0
sg14
F34.35462999343872
sg15
I814
sbsI93
(icore.engine
StatCollection
p384
(dp385
g3
I200
sg4
F14.11201000213623
sg5
F16.52078890800476
sg6
I2
sg7
F33.04157781600952
sg8
F16.520864486694336
sg9
S'OK'
p386
sg11
S'14:10:25'
p387
sg13
I0
sg14
F33.04172897338867
sg15
I814
sbsI94
(icore.engine
StatCollection
p388
(dp389
g3
I200
sg4
F13.274252891540527
sg5
F14.205323457717896
sg6
I2
sg7
F28.41064691543579
sg8
F14.205439925193787
sg9
S'OK'
p390
sg11
S'14:10:25'
p391
sg13
I0
sg14
F28.410879850387573
sg15
I814
sbsI95
(icore.engine
StatCollection
p392
(dp393
g3
I200
sg4
F14.004621982574463
sg5
F16.64357352256775
sg6
I2
sg7
F33.2871470451355
sg8
F16.64365541934967
sg9
S'OK'
p394
sg11
S'14:10:25'
p395
sg13
I0
sg14
F33.28731083869934
sg15
I814
sbsI96
(icore.engine
StatCollection
p396
(dp397
g3
I200
sg4
F13.737424850463867
sg5
F13.093925476074219
sg6
I2
sg7
F26.187850952148438
sg8
F13.094006419181824
sg9
S'OK'
p398
sg11
S'14:10:25'
p399
sg13
I0
sg14
F26.188012838363647
sg15
I814
sbsI97
(icore.engine
StatCollection
p400
(dp401
g3
I200
sg4
F14.758303165435791
sg5
F17.150718092918396
sg6
I2
sg7
F34.30143618583679
sg8
F17.15078914165497
sg9
S'OK'
p402
sg11
S'14:10:25'
p403
sg13
I0
sg14
F34.30157828330994
sg15
I814
sbsI98
(icore.engine
StatCollection
p404
(dp405
g3
I200
sg4
F15.946079969406128
sg5
F15.467534899711609
sg6
I2
sg7
F30.935069799423218
sg8
F15.467610478401184
sg9
S'OK'
p406
sg11
S'14:10:25'
p407
sg13
I0
sg14
F30.935220956802368
sg15
I814
sbsI99
(icore.engine
StatCollection
p408
(dp409
g3
I200
sg4
F16.419453144073486
sg5
F15.258010029792786
sg6
I2
sg7
F30.51602005958557
sg8
F15.258092641830444
sg9
S'OK'
p410
sg11
S'14:10:25'
p411
sg13
I0
sg14
F30.51618528366089
sg15
I814
sbsI100
(icore.engine
StatCollection
p412
(dp413
g3
I200
sg4
F13.176369905471802
sg5
F13.328323006629944
sg6
I2
sg7
F26.656646013259888
sg8
F13.32840347290039
sg9
S'OK'
p414
sg11
S'14:10:25'
p415
sg13
I0
sg14
F26.65680694580078
sg15
I814
sbsI101
(icore.engine
StatCollection
p416
(dp417
g3
I200
sg4
F12.491949081420898
sg5
F13.057618498802185
sg6
I2
sg7
F26.11523699760437
sg8
F13.057711005210876
sg9
S'OK'
p418
sg11
S'14:10:25'
p419
sg13
I0
sg14
F26.115422010421753
sg15
I814
sbsI102
(icore.engine
StatCollection
p420
(dp421
g3
I200
sg4
F17.357693195343018
sg5
F15.677458643913269
sg6
I2
sg7
F31.354917287826538
sg8
F15.67755115032196
sg9
S'OK'
p422
sg11
S'14:10:25'
p423
sg13
I0
sg14
F31.35510230064392
sg15
I814
sbsI103
(icore.engine
StatCollection
p424
(dp425
g3
I200
sg4
F14.831187009811401
sg5
F17.19988203048706
sg6
I2
sg7
F34.39976406097412
sg8
F17.199941515922546
sg9
S'OK'
p426
sg11
S'14:10:25'
p427
sg13
I0
sg14
F34.39988303184509
sg15
I814
sbsI104
(icore.engine
StatCollection
p428
(dp429
g3
I200
sg4
F12.876088857650757
sg5
F15.897990465164185
sg6
I2
sg7
F31.79598093032837
sg8
F15.898066997528076
sg9
S'OK'
p430
sg11
S'14:10:25'
p431
sg13
I0
sg14
F31.796133995056152
sg15
I814
sbsI105
(icore.engine
StatCollection
p432
(dp433
g3
I200
sg4
F12.829216003417969
sg5
F16.016837000846863
sg6
I2
sg7
F32.033674001693726
sg8
F16.016942024230957
sg9
S'OK'
p434
sg11
S'14:10:25'
p435
sg13
I0
sg14
F32.033884048461914
sg15
I814
sbsI106
(icore.engine
StatCollection
p436
(dp437
g3
I200
sg4
F16.396320104599
sg5
F14.417561531066895
sg6
I2
sg7
F28.83512306213379
sg8
F14.417676091194153
sg9
S'OK'
p438
sg11
S'14:10:25'
p439
sg13
I0
sg14
F28.835352182388306
sg15
I814
sbsI107
(icore.engine
StatCollection
p440
(dp441
g3
I200
sg4
F14.091161966323853
sg5
F14.272387504577637
sg6
I2
sg7
F28.544775009155273
sg8
F14.272478580474854
sg9
S'OK'
p442
sg11
S'14:10:25'
p443
sg13
I0
sg14
F28.544957160949707
sg15
I814
sbsI108
(icore.engine
StatCollection
p444
(dp445
g3
I200
sg4
F13.676645994186401
sg5
F14.917192578315735
sg6
I2
sg7
F29.83438515663147
sg8
F14.91729748249054
sg9
S'OK'
p446
sg11
S'14:10:25'
p447
sg13
I0
sg14
F29.83459496498108
sg15
I814
sbsI109
(icore.engine
StatCollection
p448
(dp449
g3
I200
sg4
F14.781708002090454
sg5
F17.183021068572998
sg6
I2
sg7
F34.366042137145996
sg8
F17.18309247493744
sg9
S'OK'
p450
sg11
S'14:10:25'
p451
sg13
I0
sg14
F34.36618494987488
sg15
I814
sbsI110
(icore.engine
StatCollection
p452
(dp453
g3
I200
sg4
F12.206553936004639
sg5
F15.559953570365906
sg6
I2
sg7
F31.11990714073181
sg8
F15.560046434402466
sg9
S'OK'
p454
sg11
S'14:10:25'
p455
sg13
I0
sg14
F31.12009286880493
sg15
I814
sbsI111
(icore.engine
StatCollection
p456
(dp457
g3
I200
sg4
F12.316126108169556
sg5
F13.661559581756592
sg6
I2
sg7
F27.323119163513184
sg8
F13.661674618721008
sg9
S'OK'
p458
sg11
S'14:10:25'
p459
sg13
I0
sg14
F27.323349237442017
sg15
I814
sbsI112
(icore.engine
StatCollection
p460
(dp461
g3
I200
sg4
F14.793434143066406
sg5
F17.168837070465088
sg6
I2
sg7
F34.337674140930176
sg8
F17.168927550315857
sg9
S'OK'
p462
sg11
S'14:10:25'
p463
sg13
I0
sg14
F34.337855100631714
sg15
I814
sbsI113
(icore.engine
StatCollection
p464
(dp465
g3
I200
sg4
F15.336483001708984
sg5
F15.139385104179382
sg6
I2
sg7
F30.278770208358765
sg8
F15.139480590820312
sg9
S'OK'
p466
sg11
S'14:10:25'
p467
sg13
I0
sg14
F30.278961181640625
sg15
I814
sbsI114
(icore.engine
StatCollection
p468
(dp469
g3
I200
sg4
F14.445643901824951
sg5
F16.681936025619507
sg6
I2
sg7
F33.363872051239014
sg8
F16.681997418403625
sg9
S'OK'
p470
sg11
S'14:10:25'
p471
sg13
I0
sg14
F33.36399483680725
sg15
I814
sbsI115
(icore.engine
StatCollection
p472
(dp473
g3
I200
sg4
F16.347944974899292
sg5
F15.383079528808594
sg6
I2
sg7
F30.766159057617188
sg8
F15.383161067962646
sg9
S'OK'
p474
sg11
S'14:10:25'
p475
sg13
I0
sg14
F30.766322135925293
sg15
I814
sbsI116
(icore.engine
StatCollection
p476
(dp477
g3
I200
sg4
F13.417588949203491
sg5
F14.004412531852722
sg6
I2
sg7
F28.008825063705444
sg8
F14.004505515098572
sg9
S'OK'
p478
sg11
S'14:10:25'
p479
sg13
I0
sg14
F28.009011030197144
sg15
I814
sbsI117
(icore.engine
StatCollection
p480
(dp481
g3
I200
sg4
F14.69183611869812
sg5
F16.978635549545288
sg6
I2
sg7
F33.957271099090576
sg8
F16.978715538978577
sg9
S'OK'
p482
sg11
S'14:10:25'
p483
sg13
I0
sg14
F33.95743107795715
sg15
I814
sbsI118
(icore.engine
StatCollection
p484
(dp485
g3
I200
sg4
F13.983658790588379
sg5
F14.570886969566345
sg6
I2
sg7
F29.14177393913269
sg8
F14.57096791267395
sg9
S'OK'
p486
sg11
S'14:10:25'
p487
sg13
I0
sg14
F29.1419358253479
sg15
I814
sbsI119
(icore.engine
StatCollection
p488
(dp489
g3
I200
sg4
F14.82554578781128
sg5
F15.094604849815369
sg6
I2
sg7
F30.189209699630737
sg8
F15.094665288925171
sg9
S'OK'
p490
sg11
S'14:10:25'
p491
sg13
I0
sg14
F30.189330577850342
sg15
I814
sbsI120
(icore.engine
StatCollection
p492
(dp493
g3
I200
sg4
F12.412299156188965
sg5
F13.977504134178162
sg6
I2
sg7
F27.955008268356323
sg8
F13.977570652961731
sg9
S'OK'
p494
sg11
S'14:10:25'
p495
sg13
I0
sg14
F27.955141305923462
sg15
I814
sbsI121
(icore.engine
StatCollection
p496
(dp497
g3
I200
sg4
F13.6978600025177
sg5
F16.097805976867676
sg6
I2
sg7
F32.19561195373535
sg8
F16.097912549972534
sg9
S'OK'
p498
sg11
S'14:10:25'
p499
sg13
I0
sg14
F32.19582509994507
sg15
I814
sbsI122
(icore.engine
StatCollection
p500
(dp501
g3
I200
sg4
F12.229238986968994
sg5
F14.758336424827576
sg6
I2
sg7
F29.51667284965515
sg8
F14.75844395160675
sg9
S'OK'
p502
sg11
S'14:10:25'
p503
sg13
I0
sg14
F29.5168879032135
sg15
I814
sbsI123
(icore.engine
StatCollection
p504
(dp505
g3
I200
sg4
F13.591036796569824
sg5
F16.24317991733551
sg6
I2
sg7
F32.48635983467102
sg8
F16.243268847465515
sg9
S'OK'
p506
sg11
S'14:10:25'
p507
sg13
I0
sg14
F32.48653769493103
sg15
I814
sbsI124
(icore.engine
StatCollection
p508
(dp509
g3
I200
sg4
F13.500797033309937
sg5
F16.503981113433838
sg6
I2
sg7
F33.007962226867676
sg8
F16.504058003425598
sg9
S'OK'
p510
sg11
S'14:10:25'
p511
sg13
I0
sg14
F33.008116006851196
sg15
I814
sbsI125
(icore.engine
StatCollection
p512
(dp513
g3
I200
sg4
F13.507782936096191
sg5
F16.37985897064209
sg6
I2
sg7
F32.75971794128418
sg8
F16.379937887191772
sg9
S'OK'
p514
sg11
S'14:10:25'
p515
sg13
I0
sg14
F32.759875774383545
sg15
I814
sbsI126
(icore.engine
StatCollection
p516
(dp517
g3
I200
sg4
F13.317643165588379
sg5
F16.10198950767517
sg6
I2
sg7
F32.20397901535034
sg8
F16.10205864906311
sg9
S'OK'
p518
sg11
S'14:10:25'
p519
sg13
I0
sg14
F32.20411729812622
sg15
I814
sbsI127
(icore.engine
StatCollection
p520
(dp521
g3
I200
sg4
F14.717293977737427
sg5
F17.01720654964447
sg6
I2
sg7
F34.03441309928894
sg8
F17.01731503009796
sg9
S'OK'
p522
sg11
S'14:10:25'
p523
sg13
I0
sg14
F34.03463006019592
sg15
I814
sbsI128
(icore.engine
StatCollection
p524
(dp525
g3
I200
sg4
F12.043598890304565
sg5
F15.4720960855484
sg6
I2
sg7
F30.9441921710968
sg8
F15.472168445587158
sg9
S'OK'
p526
sg11
S'14:10:25'
p527
sg13
I0
sg14
F30.944336891174316
sg15
I814
sbsI129
(icore.engine
StatCollection
p528
(dp529
g3
I200
sg4
F15.74914288520813
sg5
F14.627848982810974
sg6
I2
sg7
F29.25569796562195
sg8
F14.627948999404907
sg9
S'OK'
p530
sg11
S'14:10:25'
p531
sg13
I0
sg14
F29.255897998809814
sg15
I814
sbsI130
(icore.engine
StatCollection
p532
(dp533
g3
I200
sg4
F13.94821810722351
sg5
F16.59940457344055
sg6
I2
sg7
F33.1988091468811
sg8
F16.599481105804443
sg9
S'OK'
p534
sg11
S'14:10:25'
p535
sg13
I0
sg14
F33.19896221160889
sg15
I814
sbsI131
(icore.engine
StatCollection
p536
(dp537
g3
I200
sg4
F13.919810056686401
sg5
F16.611939907073975
sg6
I2
sg7
F33.22387981414795
sg8
F16.612067461013794
sg9
S'OK'
p538
sg11
S'14:10:25'
p539
sg13
I0
sg14
F33.22413492202759
sg15
I814
sbsI132
(icore.engine
StatCollection
p540
(dp541
g3
I200
sg4
F14.100075960159302
sg5
F16.48890745639801
sg6
I2
sg7
F32.97781491279602
sg8
F16.488991379737854
sg9
S'OK'
p542
sg11
S'14:10:25'
p543
sg13
I0
sg14
F32.97798275947571
sg15
I814
sbsI133
(icore.engine
StatCollection
p544
(dp545
g3
I200
sg4
F13.503468036651611
sg5
F14.210752010345459
sg6
I2
sg7
F28.421504020690918
sg8
F14.210839986801147
sg9
S'OK'
p546
sg11
S'14:10:25'
p547
sg13
I0
sg14
F28.421679973602295
sg15
I814
sbsI134
(icore.engine
StatCollection
p548
(dp549
g3
I200
sg4
F11.814877033233643
sg5
F15.521167993545532
sg6
I2
sg7
F31.042335987091064
sg8
F15.521264910697937
sg9
S'OK'
p550
sg11
S'14:10:25'
p551
sg13
I0
sg14
F31.042529821395874
sg15
I814
sbsI135
(icore.engine
StatCollection
p552
(dp553
g3
I200
sg4
F13.528627872467041
sg5
F16.27358603477478
sg6
I2
sg7
F32.54717206954956
sg8
F16.273683428764343
sg9
S'OK'
p554
sg11
S'14:10:25'
p555
sg13
I0
sg14
F32.54736685752869
sg15
I814
sbsI136
(icore.engine
StatCollection
p556
(dp557
g3
I200
sg4
F13.249924898147583
sg5
F13.45691204071045
sg6
I2
sg7
F26.9138240814209
sg8
F13.457016468048096
sg9
S'OK'
p558
sg11
S'14:10:25'
p559
sg13
I0
sg14
F26.91403293609619
sg15
I814
sbsI137
(icore.engine
StatCollection
p560
(dp561
g3
I200
sg4
F14.975736856460571
sg5
F17.105588912963867
sg6
I2
sg7
F34.211177825927734
sg8
F17.10566282272339
sg9
S'OK'
p562
sg11
S'14:10:25'
p563
sg13
I0
sg14
F34.21132564544678
sg15
I814
sbsI138
(icore.engine
StatCollection
p564
(dp565
g3
I200
sg4
F14.921600818634033
sg5
F17.196737408638
sg6
I2
sg7
F34.393474817276
sg8
F17.196804404258728
sg9
S'OK'
p566
sg11
S'14:10:25'
p567
sg13
I0
sg14
F34.393608808517456
sg15
I814
sbsI139
(icore.engine
StatCollection
p568
(dp569
g3
I200
sg4
F13.595154047012329
sg5
F16.402316689491272
sg6
I2
sg7
F32.804633378982544
sg8
F16.402395129203796
sg9
S'OK'
p570
sg11
S'14:10:25'
p571
sg13
I0
sg14
F32.80479025840759
sg15
I814
sbsI140
(icore.engine
StatCollection
p572
(dp573
g3
I200
sg4
F14.469084024429321
sg5
F13.04397702217102
sg6
I2
sg7
F26.08795404434204
sg8
F13.044069528579712
sg9
S'OK'
p574
sg11
S'14:10:25'
p575
sg13
I0
sg14
F26.088139057159424
sg15
I814
sbsI141
(icore.engine
StatCollection
p576
(dp577
g3
I200
sg4
F14.688979148864746
sg5
F17.099768042564392
sg6
I2
sg7
F34.199536085128784
sg8
F17.099837064743042
sg9
S'OK'
p578
sg11
S'14:10:25'
p579
sg13
I0
sg14
F34.199674129486084
sg15
I814
sbsI142
(icore.engine
StatCollection
p580
(dp581
g3
I200
sg4
F14.229700088500977
sg5
F14.897958993911743
sg6
I2
sg7
F29.795917987823486
sg8
F14.898025512695312
sg9
S'OK'
p582
sg11
S'14:10:25'
p583
sg13
I0
sg14
F29.796051025390625
sg15
I814
sbsI143
(icore.engine
StatCollection
p584
(dp585
g3
I200
sg4
F14.751657009124756
sg5
F15.053426027297974
sg6
I2
sg7
F30.106852054595947
sg8
F15.053494572639465
sg9
S'OK'
p586
sg11
S'14:10:25'
p587
sg13
I0
sg14
F30.10698914527893
sg15
I814
sbsI144
(icore.engine
StatCollection
p588
(dp589
g3
I200
sg4
F13.21258282661438
sg5
F16.36924397945404
sg6
I2
sg7
F32.73848795890808
sg8
F16.369345903396606
sg9
S'OK'
p590
sg11
S'14:10:25'
p591
sg13
I0
sg14
F32.73869180679321
sg15
I814
sbsI145
(icore.engine
StatCollection
p592
(dp593
g3
I200
sg4
F14.674690008163452
sg5
F17.070390939712524
sg6
I2
sg7
F34.14078187942505
sg8
F17.070464491844177
sg9
S'OK'
p594
sg11
S'14:10:25'
p595
sg13
I0
sg14
F34.140928983688354
sg15
I814
sbsI146
(icore.engine
StatCollection
p596
(dp597
g3
I200
sg4
F14.723337888717651
sg5
F14.572826504707336
sg6
I2
sg7
F29.145653009414673
sg8
F14.572909474372864
sg9
S'OK'
p598
sg11
S'14:10:25'
p599
sg13
I0
sg14
F29.145818948745728
sg15
I814
sbsI147
(icore.engine
StatCollection
p600
(dp601
g3
I200
sg4
F14.473444938659668
sg5
F16.97920298576355
sg6
I2
sg7
F33.9584059715271
sg8
F16.979268550872803
sg9
S'OK'
p602
sg11
S'14:10:25'
p603
sg13
I0
sg14
F33.958537101745605
sg15
I814
sbsI148
(icore.engine
StatCollection
p604
(dp605
g3
I200
sg4
F14.1112699508667
sg5
F15.302743434906006
sg6
I2
sg7
F30.60548686981201
sg8
F15.302845001220703
sg9
S'OK'
p606
sg11
S'14:10:25'
p607
sg13
I0
sg14
F30.605690002441406
sg15
I814
sbsI149
(icore.engine
StatCollection
p608
(dp609
g3
I200
sg4
F15.130643129348755
sg5
F17.174649477005005
sg6
I2
sg7
F34.34929895401001
sg8
F17.1747065782547
sg9
S'OK'
p610
sg11
S'14:10:25'
p611
sg13
I0
sg14
F34.3494131565094
sg15
I814
sbsI150
(icore.engine
StatCollection
p612
(dp613
g3
I200
sg4
F12.509979963302612
sg5
F15.860369086265564
sg6
I2
sg7
F31.720738172531128
sg8
F15.860440492630005
sg9
S'OK'
p614
sg11
S'14:10:25'
p615
sg13
I0
sg14
F31.72088098526001
sg15
I814
sbsI151
(icore.engine
StatCollection
p616
(dp617
g3
I200
sg4
F13.64974594116211
sg5
F16.41996693611145
sg6
I2
sg7
F32.8399338722229
sg8
F16.420043468475342
sg9
S'OK'
p618
sg11
S'14:10:25'
p619
sg13
I0
sg14
F32.840086936950684
sg15
I814
sbsI152
(icore.engine
StatCollection
p620
(dp621
g3
I200
sg4
F14.798939943313599
sg5
F15.445582509040833
sg6
I2
sg7
F30.891165018081665
sg8
F15.445687055587769
sg9
S'OK'
p622
sg11
S'14:10:25'
p623
sg13
I0
sg14
F30.891374111175537
sg15
I814
sbsI153
(icore.engine
StatCollection
p624
(dp625
g3
I200
sg4
F14.593011856079102
sg5
F17.0377140045166
sg6
I2
sg7
F34.0754280090332
sg8
F17.037787437438965
sg9
S'OK'
p626
sg11
S'14:10:25'
p627
sg13
I0
sg14
F34.07557487487793
sg15
I814
sbsI154
(icore.engine
StatCollection
p628
(dp629
g3
I200
sg4
F14.33985710144043
sg5
F16.900225520133972
sg6
I2
sg7
F33.800451040267944
sg8
F16.900293111801147
sg9
S'OK'
p630
sg11
S'14:10:25'
p631
sg13
I0
sg14
F33.800586223602295
sg15
I814
sbsI155
(icore.engine
StatCollection
p632
(dp633
g3
I200
sg4
F12.713329076766968
sg5
F15.949905514717102
sg6
I2
sg7
F31.899811029434204
sg8
F15.949992537498474
sg9
S'OK'
p634
sg11
S'14:10:25'
p635
sg13
I0
sg14
F31.89998507499695
sg15
I814
sbsI156
(icore.engine
StatCollection
p636
(dp637
g3
I200
sg4
F14.13553786277771
sg5
F16.23452889919281
sg6
I2
sg7
F32.46905779838562
sg8
F16.234615921974182
sg9
S'OK'
p638
sg11
S'14:10:25'
p639
sg13
I0
sg14
F32.469231843948364
sg15
I814
sbsI157
(icore.engine
StatCollection
p640
(dp641
g3
I200
sg4
F14.454105854034424
sg5
F15.017439484596252
sg6
I2
sg7
F30.034878969192505
sg8
F15.017515540122986
sg9
S'OK'
p642
sg11
S'14:10:25'
p643
sg13
I0
sg14
F30.03503108024597
sg15
I814
sbsI158
(icore.engine
StatCollection
p644
(dp645
g3
I200
sg4
F14.979182958602905
sg5
F16.917747139930725
sg6
I2
sg7
F33.83549427986145
sg8
F16.917834043502808
sg9
S'OK'
p646
sg11
S'14:10:25'
p647
sg13
I0
sg14
F33.835668087005615
sg15
I814
sbsI159
(icore.engine
StatCollection
p648
(dp649
g3
I200
sg4
F15.427242994308472
sg5
F16.578948378562927
sg6
I2
sg7
F33.157896757125854
sg8
F16.579039931297302
sg9
S'OK'
p650
sg11
S'14:10:25'
p651
sg13
I0
sg14
F33.158079862594604
sg15
I814
sbsI160
(icore.engine
StatCollection
p652
(dp653
g3
I200
sg4
F15.081607103347778
sg5
F16.96389603614807
sg6
I2
sg7
F33.92779207229614
sg8
F16.96399450302124
sg9
S'OK'
p654
sg11
S'14:10:25'
p655
sg13
I0
sg14
F33.92798900604248
sg15
I814
sbsI161
(icore.engine
StatCollection
p656
(dp657
g3
I200
sg4
F13.13515019416809
sg5
F13.473696112632751
sg6
I2
sg7
F26.947392225265503
sg8
F13.473769068717957
sg9
S'OK'
p658
sg11
S'14:10:25'
p659
sg13
I0
sg14
F26.947538137435913
sg15
I814
sbsI162
(icore.engine
StatCollection
p660
(dp661
g3
I200
sg4
F16.4102520942688
sg5
F15.081400513648987
sg6
I2
sg7
F30.162801027297974
sg8
F15.081480145454407
sg9
S'OK'
p662
sg11
S'14:10:25'
p663
sg13
I0
sg14
F30.162960290908813
sg15
I814
sbsI163
(icore.engine
StatCollection
p664
(dp665
g3
I200
sg4
F13.715842008590698
sg5
F13.62999701499939
sg6
I2
sg7
F27.25999402999878
sg8
F13.63007402420044
sg9
S'OK'
p666
sg11
S'14:10:25'
p667
sg13
I0
sg14
F27.26014804840088
sg15
I814
sbsI164
(icore.engine
StatCollection
p668
(dp669
g3
I200
sg4
F20.999501943588257
sg5
F20.999422073364258
sg6
I1
sg7
F20.999422073364258
sg8
F20.999501943588257
sg9
S'OK'
p670
sg11
S'14:10:25'
p671
sg13
I0
sg14
F20.999501943588257
sg15
I407
sbsI165
(icore.engine
StatCollection
p672
(dp673
g3
I200
sg4
F14.715904951095581
sg5
F17.073726415634155
sg6
I2
sg7
F34.14745283126831
sg8
F17.073809385299683
sg9
S'OK'
p674
sg11
S'14:10:25'
p675
sg13
I0
sg14
F34.147618770599365
sg15
I814
sbsI166
(icore.engine
StatCollection
p676
(dp677
g3
I200
sg4
F13.625766038894653
sg5
F13.22089159488678
sg6
I2
sg7
F26.44178318977356
sg8
F13.221007585525513
sg9
S'OK'
p678
sg11
S'14:10:25'
p679
sg13
I0
sg14
F26.442015171051025
sg15
I814
sbsI167
(icore.engine
StatCollection
p680
(dp681
g3
I200
sg4
F13.833251953125
sg5
F16.144222497940063
sg6
I2
sg7
F32.28844499588013
sg8
F16.144310474395752
sg9
S'OK'
p682
sg11
S'14:10:25'
p683
sg13
I0
sg14
F32.288620948791504
sg15
I814
sbsI168
(icore.engine
StatCollection
p684
(dp685
g3
I200
sg4
F14.659679174423218
sg5
F17.039724588394165
sg6
I2
sg7
F34.07944917678833
sg8
F17.039806127548218
sg9
S'OK'
p686
sg11
S'14:10:25'
p687
sg13
I0
sg14
F34.079612255096436
sg15
I814
sbsI169
(icore.engine
StatCollection
p688
(dp689
g3
I200
sg4
F14.674122095108032
sg5
F15.374688506126404
sg6
I2
sg7
F30.749377012252808
sg8
F15.374762535095215
sg9
S'OK'
p690
sg11
S'14:10:25'
p691
sg13
I0
sg14
F30.74952507019043
sg15
I814
sbsI170
(icore.engine
StatCollection
p692
(dp693
g3
I200
sg4
F13.415059089660645
sg5
F16.296921014785767
sg6
I2
sg7
F32.59384202957153
sg8
F16.296993017196655
sg9
S'OK'
p694
sg11
S'14:10:25'
p695
sg13
I0
sg14
F32.59398603439331
sg15
I814
sbsI171
(icore.engine
StatCollection
p696
(dp697
g3
I200
sg4
F13.973171949386597
sg5
F16.577362418174744
sg6
I2
sg7
F33.15472483634949
sg8
F16.577432870864868
sg9
S'OK'
p698
sg11
S'14:10:25'
p699
sg13
I0
sg14
F33.154865741729736
sg15
I814
sbsI172
(icore.engine
StatCollection
p700
(dp701
g3
I200
sg4
F10.727861881256104
sg5
F14.050063967704773
sg6
I2
sg7
F28.100127935409546
sg8
F14.05019748210907
sg9
S'OK'
p702
sg11
S'14:10:25'
p703
sg13
I0
sg14
F28.10039496421814
sg15
I814
sbsI173
(icore.engine
StatCollection
p704
(dp705
g3
I200
sg4
F13.690102100372314
sg5
F13.917384624481201
sg6
I2
sg7
F27.834769248962402
sg8
F13.917468070983887
sg9
S'OK'
p706
sg11
S'14:10:25'
p707
sg13
I0
sg14
F27.834936141967773
sg15
I814
sbsI174
(icore.engine
StatCollection
p708
(dp709
g3
I200
sg4
F14.94707703590393
sg5
F17.180641531944275
sg6
I2
sg7
F34.36128306388855
sg8
F17.18071949481964
sg9
S'OK'
p710
sg11
S'14:10:25'
p711
sg13
I0
sg14
F34.36143898963928
sg15
I814
sbsI175
(icore.engine
StatCollection
p712
(dp713
g3
I200
sg4
F11.955785036087036
sg5
F15.55511748790741
sg6
I2
sg7
F31.11023497581482
sg8
F15.555219531059265
sg9
S'OK'
p714
sg11
S'14:10:25'
p715
sg13
I0
sg14
F31.11043906211853
sg15
I814
sbsI176
(icore.engine
StatCollection
p716
(dp717
g3
I200
sg4
F14.849357843399048
sg5
F17.016558408737183
sg6
I2
sg7
F34.033116817474365
sg8
F17.016626358032227
sg9
S'OK'
p718
sg11
S'14:10:25'
p719
sg13
I0
sg14
F34.03325271606445
sg15
I814
sbsI177
(icore.engine
StatCollection
p720
(dp721
g3
I200
sg4
F13.873356103897095
sg5
F13.017905950546265
sg6
I2
sg7
F26.03581190109253
sg8
F13.017983555793762
sg9
S'OK'
p722
sg11
S'14:10:25'
p723
sg13
I0
sg14
F26.035967111587524
sg15
I814
sbsI178
(icore.engine
StatCollection
p724
(dp725
g3
I200
sg4
F13.190633058547974
sg5
F16.00627899169922
sg6
I2
sg7
F32.01255798339844
sg8
F16.00636649131775
sg9
S'OK'
p726
sg11
S'14:10:25'
p727
sg13
I0
sg14
F32.0127329826355
sg15
I814
sbsI179
(icore.engine
StatCollection
p728
(dp729
g3
I200
sg4
F13.988107919692993
sg5
F13.921664953231812
sg6
I2
sg7
F27.843329906463623
sg8
F13.92175841331482
sg9
S'OK'
p730
sg11
S'14:10:25'
p731
sg13
I0
sg14
F27.84351682662964
sg15
I814
sbsI180
(icore.engine
StatCollection
p732
(dp733
g3
I200
sg4
F11.803047895431519
sg5
F13.235358953475952
sg6
I2
sg7
F26.470717906951904
sg8
F13.235479474067688
sg9
S'OK'
p734
sg11
S'14:10:25'
p735
sg13
I0
sg14
F26.470958948135376
sg15
I814
sbsI181
(icore.engine
StatCollection
p736
(dp737
g3
I200
sg4
F12.877454042434692
sg5
F16.011762022972107
sg6
I2
sg7
F32.023524045944214
sg8
F16.01184606552124
sg9
S'OK'
p738
sg11
S'14:10:25'
p739
sg13
I0
sg14
F32.02369213104248
sg15
I814
sbsI182
(icore.engine
StatCollection
p740
(dp741
g3
I200
sg4
F13.81840205192566
sg5
F16.625532031059265
sg6
I2
sg7
F33.25106406211853
sg8
F16.625638961791992
sg9
S'OK'
p742
sg11
S'14:10:25'
p743
sg13
I0
sg14
F33.251277923583984
sg15
I814
sbsI183
(icore.engine
StatCollection
p744
(dp745
g3
I200
sg4
F13.587960004806519
sg5
F16.480648517608643
sg6
I2
sg7
F32.961297035217285
sg8
F16.480741024017334
sg9
S'OK'
p746
sg11
S'14:10:25'
p747
sg13
I0
sg14
F32.96148204803467
sg15
I814
sbsI184
(icore.engine
StatCollection
p748
(dp749
g3
I200
sg4
F13.152172803878784
sg5
F13.393409848213196
sg6
I2
sg7
F26.78681969642639
sg8
F13.393484950065613
sg9
S'OK'
p750
sg11
S'14:10:25'
p751
sg13
I0
sg14
F26.786969900131226
sg15
I814
sbsI185
(icore.engine
StatCollection
p752
(dp753
g3
I200
sg4
F13.029453992843628
sg5
F16.21712350845337
sg6
I2
sg7
F32.43424701690674
sg8
F16.21719455718994
sg9
S'OK'
p754
sg11
S'14:10:25'
p755
sg13
I0
sg14
F32.43438911437988
sg15
I814
sbsI186
(icore.engine
StatCollection
p756
(dp757
g3
I200
sg4
F14.841332912445068
sg5
F16.99174654483795
sg6
I2
sg7
F33.9834930896759
sg8
F16.99184799194336
sg9
S'OK'
p758
sg11
S'14:10:25'
p759
sg13
I0
sg14
F33.98369598388672
sg15
I814
sbsI187
(icore.engine
StatCollection
p760
(dp761
g3
I200
sg4
F14.39140009880066
sg5
F14.178968071937561
sg6
I2
sg7
F28.357936143875122
sg8
F14.179061532020569
sg9
S'OK'
p762
sg11
S'14:10:25'
p763
sg13
I0
sg14
F28.358123064041138
sg15
I814
sbsI188
(icore.engine
StatCollection
p764
(dp765
g3
I200
sg4
F12.508399963378906
sg5
F15.659536004066467
sg6
I2
sg7
F31.319072008132935
sg8
F15.659630417823792
sg9
S'OK'
p766
sg11
S'14:10:25'
p767
sg13
I0
sg14
F31.319260835647583
sg15
I814
sbsI189
(icore.engine
StatCollection
p768
(dp769
g3
I200
sg4
F14.677794933319092
sg5
F17.063987970352173
sg6
I2
sg7
F34.127975940704346
sg8
F17.064062476158142
sg9
S'OK'
p770
sg11
S'14:10:25'
p771
sg13
I0
sg14
F34.128124952316284
sg15
I814
sbsI190
(icore.engine
StatCollection
p772
(dp773
g3
I200
sg4
F13.661644220352173
sg5
F16.40927505493164
sg6
I2
sg7
F32.81855010986328
sg8
F16.40937912464142
sg9
S'OK'
p774
sg11
S'14:10:25'
p775
sg13
I0
sg14
F32.81875824928284
sg15
I814
sbsI191
(icore.engine
StatCollection
p776
(dp777
g3
I200
sg4
F14.7496018409729
sg5
F17.074051022529602
sg6
I2
sg7
F34.148102045059204
sg8
F17.07412040233612
sg9
S'OK'
p778
sg11
S'14:10:25'
p779
sg13
I0
sg14
F34.14824080467224
sg15
I814
sbsI192
(icore.engine
StatCollection
p780
(dp781
g3
I200
sg4
F14.296695947647095
sg5
F16.550350427627563
sg6
I2
sg7
F33.10070085525513
sg8
F16.550419449806213
sg9
S'OK'
p782
sg11
S'14:10:25'
p783
sg13
I0
sg14
F33.10083889961243
sg15
I814
sbsI193
(icore.engine
StatCollection
p784
(dp785
g3
I200
sg4
F20.291564226150513
sg5
F20.29147720336914
sg6
I1
sg7
F20.29147720336914
sg8
F20.291564226150513
sg9
S'OK'
p786
sg11
S'14:10:25'
p787
sg13
I0
sg14
F20.291564226150513
sg15
I407
sbsI194
(icore.engine
StatCollection
p788
(dp789
g3
I200
sg4
F13.665177822113037
sg5
F14.329721927642822
sg6
I2
sg7
F28.659443855285645
sg8
F14.329819440841675
sg9
S'OK'
p790
sg11
S'14:10:25'
p791
sg13
I0
sg14
F28.65963888168335
sg15
I814
sbsI195
(icore.engine
StatCollection
p792
(dp793
g3
I200
sg4
F14.645510911941528
sg5
F17.018787026405334
sg6
I2
sg7
F34.03757405281067
sg8
F17.01886546611786
sg9
S'OK'
p794
sg11
S'14:10:25'
p795
sg13
I0
sg14
F34.03773093223572
sg15
I814
sbsI196
(icore.engine
StatCollection
p796
(dp797
g3
I200
sg4
F14.784287929534912
sg5
F17.092034578323364
sg6
I2
sg7
F34.18406915664673
sg8
F17.092108488082886
sg9
S'OK'
p798
sg11
S'14:10:25'
p799
sg13
I0
sg14
F34.18421697616577
sg15
I814
sbsI197
(icore.engine
StatCollection
p800
(dp801
g3
I200
sg4
F14.914293050765991
sg5
F17.148197054862976
sg6
I2
sg7
F34.29639410972595
sg8
F17.148262977600098
sg9
S'OK'
p802
sg11
S'14:10:25'
p803
sg13
I0
sg14
F34.296525955200195
sg15
I814
sbsI198
(icore.engine
StatCollection
p804
(dp805
g3
I200
sg4
F20.78321409225464
sg5
F20.783132076263428
sg6
I1
sg7
F20.783132076263428
sg8
F20.78321409225464
sg9
S'OK'
p806
sg11
S'14:10:25'
p807
sg13
I0
sg14
F20.78321409225464
sg15
I407
sbsI199
(icore.engine
StatCollection
p808
(dp809
g3
I200
sg4
F14.503959894180298
sg5
F16.98202896118164
sg6
I2
sg7
F33.96405792236328
sg8
F16.982114911079407
sg9
S'OK'
p810
sg11
S'14:10:25'
p811
sg13
I0
sg14
F33.96422982215881
sg15
I814
sbsI200
(icore.engine
StatCollection
p812
(dp813
g3
I200
sg4
F13.90374207496643
sg5
F16.349355578422546
sg6
I2
sg7
F32.69871115684509
sg8
F16.349459528923035
sg9
S'OK'
p814
sg11
S'14:10:25'
p815
sg13
I0
sg14
F32.69891905784607
sg15
I814
sbsI201
(icore.engine
StatCollection
p816
(dp817
g3
I200
sg4
F14.251903057098389
sg5
F17.008967995643616
sg6
I2
sg7
F34.01793599128723
sg8
F17.00904655456543
sg9
S'OK'
p818
sg11
S'14:10:25'
p819
sg13
I0
sg14
F34.01809310913086
sg15
I814
sbsI202
(icore.engine
StatCollection
p820
(dp821
g3
I200
sg4
F20.607425212860107
sg5
F20.607357025146484
sg6
I1
sg7
F20.607357025146484
sg8
F20.607425212860107
sg9
S'OK'
p822
sg11
S'14:10:25'
p823
sg13
I0
sg14
F20.607425212860107
sg15
I407
sbsI203
(icore.engine
StatCollection
p824
(dp825
g3
I200
sg4
F11.380121946334839
sg5
F14.513852000236511
sg6
I2
sg7
F29.027704000473022
sg8
F14.513927936553955
sg9
S'OK'
p826
sg11
S'14:10:25'
p827
sg13
I0
sg14
F29.02785587310791
sg15
I814
sbsI204
(icore.engine
StatCollection
p828
(dp829
g3
I200
sg4
F13.963157176971436
sg5
F16.364949941635132
sg6
I2
sg7
F32.729899883270264
sg8
F16.36501407623291
sg9
S'OK'
p830
sg11
S'14:10:25'
p831
sg13
I0
sg14
F32.73002815246582
sg15
I814
sbsI205
(icore.engine
StatCollection
p832
(dp833
g3
I200
sg4
F15.161801099777222
sg5
F17.144920587539673
sg6
I2
sg7
F34.289841175079346
sg8
F17.144978642463684
sg9
S'OK'
p834
sg11
S'14:10:25'
p835
sg13
I0
sg14
F34.28995728492737
sg15
I814
sbsI206
(icore.engine
StatCollection
p836
(dp837
g3
I200
sg4
F13.765908002853394
sg5
F16.559126377105713
sg6
I2
sg7
F33.118252754211426
sg8
F16.55919647216797
sg9
S'OK'
p838
sg11
S'14:10:25'
p839
sg13
I0
sg14
F33.11839294433594
sg15
I814
sbsI207
(icore.engine
StatCollection
p840
(dp841
g3
I200
sg4
F14.809421062469482
sg5
F17.096883058547974
sg6
I2
sg7
F34.19376611709595
sg8
F17.09693956375122
sg9
S'OK'
p842
sg11
S'14:10:25'
p843
sg13
I0
sg14
F34.19387912750244
sg15
I814
sbsI208
(icore.engine
StatCollection
p844
(dp845
g3
I200
sg4
F13.961435079574585
sg5
F16.54589593410492
sg6
I2
sg7
F33.09179186820984
sg8
F16.545966029167175
sg9
S'OK'
p846
sg11
S'14:10:25'
p847
sg13
I0
sg14
F33.09193205833435
sg15
I814
sbsI209
(icore.engine
StatCollection
p848
(dp849
g3
I200
sg4
F12.640028953552246
sg5
F13.190603971481323
sg6
I2
sg7
F26.381207942962646
sg8
F13.190675973892212
sg9
S'OK'
p850
sg11
S'14:10:25'
p851
sg13
I0
sg14
F26.381351947784424
sg15
I814
sbsI210
(icore.engine
StatCollection
p852
(dp853
g3
I200
sg4
F14.178345918655396
sg5
F14.490155577659607
sg6
I2
sg7
F28.980311155319214
sg8
F14.490230441093445
sg9
S'OK'
p854
sg11
S'14:10:25'
p855
sg13
I0
sg14
F28.98046088218689
sg15
I814
sbsI211
(icore.engine
StatCollection
p856
(dp857
g3
I200
sg4
F14.414582967758179
sg5
F16.597909927368164
sg6
I2
sg7
F33.19581985473633
sg8
F16.59797501564026
sg9
S'OK'
p858
sg11
S'14:10:25'
p859
sg13
I0
sg14
F33.19595003128052
sg15
I814
sbsI212
(icore.engine
StatCollection
p860
(dp861
g3
I200
sg4
F16.044969081878662
sg5
F15.677493572235107
sg6
I2
sg7
F31.354987144470215
sg8
F15.677571535110474
sg9
S'OK'
p862
sg11
S'14:10:25'
p863
sg13
I0
sg14
F31.355143070220947
sg15
I814
sbsI213
(icore.engine
StatCollection
p864
(dp865
g3
I200
sg4
F18.253921031951904
sg5
F16.290340542793274
sg6
I2
sg7
F32.58068108558655
sg8
F16.29044997692108
sg9
S'OK'
p866
sg11
S'14:10:25'
p867
sg13
I0
sg14
F32.58089995384216
sg15
I814
sbsI214
(icore.engine
StatCollection
p868
(dp869
g3
I200
sg4
F13.612145900726318
sg5
F15.76668107509613
sg6
I2
sg7
F31.53336215019226
sg8
F15.766782999038696
sg9
S'OK'
p870
sg11
S'14:10:25'
p871
sg13
I0
sg14
F31.533565998077393
sg15
I814
sbsI215
(icore.engine
StatCollection
p872
(dp873
g3
I200
sg4
F14.53616213798523
sg5
F13.731301665306091
sg6
I2
sg7
F27.462603330612183
sg8
F13.731380105018616
sg9
S'OK'
p874
sg11
S'14:10:25'
p875
sg13
I0
sg14
F27.46276021003723
sg15
I814
sbsI216
(icore.engine
StatCollection
p876
(dp877
g3
I200
sg4
F13.420773029327393
sg5
F15.836638450622559
sg6
I2
sg7
F31.673276901245117
sg8
F15.836712002754211
sg9
S'OK'
p878
sg11
S'14:10:25'
p879
sg13
I0
sg14
F31.673424005508423
sg15
I814
sbsI217
(icore.engine
StatCollection
p880
(dp881
g3
I200
sg4
F12.55211591720581
sg5
F12.25570547580719
sg6
I2
sg7
F24.51141095161438
sg8
F12.255781888961792
sg9
S'OK'
p882
sg11
S'14:10:25'
p883
sg13
I0
sg14
F24.511563777923584
sg15
I814
sbsI218
(icore.engine
StatCollection
p884
(dp885
g3
I200
sg4
F14.01104187965393
sg5
F16.565380096435547
sg6
I2
sg7
F33.130760192871094
sg8
F16.565457940101624
sg9
S'OK'
p886
sg11
S'14:10:25'
p887
sg13
I0
sg14
F33.13091588020325
sg15
I814
sbsI219
(icore.engine
StatCollection
p888
(dp889
g3
I200
sg4
F13.692447900772095
sg5
F16.402182579040527
sg6
I2
sg7
F32.804365158081055
sg8
F16.402273416519165
sg9
S'OK'
p890
sg11
S'14:10:25'
p891
sg13
I0
sg14
F32.80454683303833
sg15
I814
sbsI220
(icore.engine
StatCollection
p892
(dp893
g3
I200
sg4
F14.167033910751343
sg5
F16.79437553882599
sg6
I2
sg7
F33.58875107765198
sg8
F16.79445195198059
sg9
S'OK'
p894
sg11
S'14:10:25'
p895
sg13
I0
sg14
F33.58890390396118
sg15
I814
sbsI221
(icore.engine
StatCollection
p896
(dp897
g3
I200
sg4
F14.594374895095825
sg5
F17.00182545185089
sg6
I2
sg7
F34.00365090370178
sg8
F17.001897931098938
sg9
S'OK'
p898
sg11
S'14:10:25'
p899
sg13
I0
sg14
F34.003795862197876
sg15
I814
sbsI222
(icore.engine
StatCollection
p900
(dp901
g3
I200
sg4
F14.838896989822388
sg5
F17.117540955543518
sg6
I2
sg7
F34.235081911087036
sg8
F17.11760950088501
sg9
S'OK'
p902
sg11
S'14:10:25'
p903
sg13
I0
sg14
F34.23521900177002
sg15
I814
sbsI223
(icore.engine
StatCollection
p904
(dp905
g3
I200
sg4
F13.483953952789307
sg5
F16.550195455551147
sg6
I2
sg7
F33.100390911102295
sg8
F16.55028736591339
sg9
S'OK'
p906
sg11
S'14:10:25'
p907
sg13
I0
sg14
F33.10057473182678
sg15
I814
sbsI224
(icore.engine
StatCollection
p908
(dp909
g3
I200
sg4
F14.723809957504272
sg5
F17.048239946365356
sg6
I2
sg7
F34.09647989273071
sg8
F17.04831850528717
sg9
S'OK'
p910
sg11
S'14:10:25'
p911
sg13
I0
sg14
F34.09663701057434
sg15
I814
sbsI225
(icore.engine
StatCollection
p912
(dp913
g3
I200
sg4
F14.481642007827759
sg5
F16.79474449157715
sg6
I2
sg7
F33.5894889831543
sg8
F16.794827461242676
sg9
S'OK'
p914
sg11
S'14:10:25'
p915
sg13
I0
sg14
F33.58965492248535
sg15
I814
sbsI226
(icore.engine
StatCollection
p916
(dp917
g3
I200
sg4
F12.923557996749878
sg5
F16.007722973823547
sg6
I2
sg7
F32.015445947647095
sg8
F16.007822513580322
sg9
S'OK'
p918
sg11
S'14:10:25'
p919
sg13
I0
sg14
F32.015645027160645
sg15
I814
sbsI227
(icore.engine
StatCollection
p920
(dp921
g3
I200
sg4
F14.58541202545166
sg5
F16.730189561843872
sg6
I2
sg7
F33.460379123687744
sg8
F16.7302565574646
sg9
S'OK'
p922
sg11
S'14:10:25'
p923
sg13
I0
sg14
F33.4605131149292
sg15
I814
sbsI228
(icore.engine
StatCollection
p924
(dp925
g3
I200
sg4
F14.880928039550781
sg5
F17.110854983329773
sg6
I2
sg7
F34.221709966659546
sg8
F17.110925555229187
sg9
S'OK'
p926
sg11
S'14:10:25'
p927
sg13
I0
sg14
F34.221851110458374
sg15
I814
sbsI229
(icore.engine
StatCollection
p928
(dp929
g3
I200
sg4
F14.425558090209961
sg5
F16.899454951286316
sg6
I2
sg7
F33.79890990257263
sg8
F16.899539947509766
sg9
S'OK'
p930
sg11
S'14:10:25'
p931
sg13
I0
sg14
F33.79907989501953
sg15
I814
sbsI230
(icore.engine
StatCollection
p932
(dp933
g3
I200
sg4
F15.456441879272461
sg5
F15.416283369064331
sg6
I2
sg7
F30.832566738128662
sg8
F15.41639792919159
sg9
S'OK'
p934
sg11
S'14:10:25'
p935
sg13
I0
sg14
F30.83279585838318
sg15
I814
sbsI231
(icore.engine
StatCollection
p936
(dp937
g3
I200
sg4
F15.306568145751953
sg5
F17.027547597885132
sg6
I2
sg7
F34.055095195770264
sg8
F17.027600646018982
sg9
S'OK'
p938
sg11
S'14:10:25'
p939
sg13
I0
sg14
F34.055201292037964
sg15
I814
sbsI232
(icore.engine
StatCollection
p940
(dp941
g3
I200
sg4
F14.23503303527832
sg5
F16.66239106655121
sg6
I2
sg7
F33.32478213310242
sg8
F16.662484049797058
sg9
S'OK'
p942
sg11
S'14:10:25'
p943
sg13
I0
sg14
F33.324968099594116
sg15
I814
sbsI233
(icore.engine
StatCollection
p944
(dp945
g3
I200
sg4
F15.356961011886597
sg5
F14.963801860809326
sg6
I2
sg7
F29.927603721618652
sg8
F14.963901996612549
sg9
S'OK'
p946
sg11
S'14:10:25'
p947
sg13
I0
sg14
F29.927803993225098
sg15
I814
sbsI234
(icore.engine
StatCollection
p948
(dp949
g3
I200
sg4
F12.539885997772217
sg5
F15.641464591026306
sg6
I2
sg7
F31.282929182052612
sg8
F15.64154303073883
sg9
S'OK'
p950
sg11
S'14:10:25'
p951
sg13
I0
sg14
F31.28308606147766
sg15
I814
sbsI235
(icore.engine
StatCollection
p952
(dp953
g3
I200
sg4
F20.370118141174316
sg5
F20.37006711959839
sg6
I1
sg7
F20.37006711959839
sg8
F20.370118141174316
sg9
S'OK'
p954
sg11
S'14:10:25'
p955
sg13
I0
sg14
F20.370118141174316
sg15
I407
sbsI236
(icore.engine
StatCollection
p956
(dp957
g3
I200
sg4
F12.52712607383728
sg5
F15.785083532333374
sg6
I2
sg7
F31.570167064666748
sg8
F15.78515350818634
sg9
S'OK'
p958
sg11
S'14:10:25'
p959
sg13
I0
sg14
F31.57030701637268
sg15
I814
sbsI237
(icore.engine
StatCollection
p960
(dp961
g3
I200
sg4
F13.868649005889893
sg5
F16.29668152332306
sg6
I2
sg7
F32.59336304664612
sg8
F16.296743988990784
sg9
S'OK'
p962
sg11
S'14:10:25'
p963
sg13
I0
sg14
F32.59348797798157
sg15
I814
sbsI238
(icore.engine
StatCollection
p964
(dp965
g3
I200
sg4
F12.408281087875366
sg5
F15.746549606323242
sg6
I2
sg7
F31.493099212646484
sg8
F15.746613502502441
sg9
S'OK'
p966
sg11
S'14:10:25'
p967
sg13
I0
sg14
F31.493227005004883
sg15
I814
sbsI239
(icore.engine
StatCollection
p968
(dp969
g3
I200
sg4
F12.447297096252441
sg5
F15.33293604850769
sg6
I2
sg7
F30.66587209701538
sg8
F15.333019137382507
sg9
S'OK'
p970
sg11
S'14:10:25'
p971
sg13
I0
sg14
F30.666038274765015
sg15
I814
sbsI240
(icore.engine
StatCollection
p972
(dp973
g3
I200
sg4
F15.542354822158813
sg5
F17.13416087627411
sg6
I2
sg7
F34.26832175254822
sg8
F17.13423240184784
sg9
S'OK'
p974
sg11
S'14:10:25'
p975
sg13
I0
sg14
F34.26846480369568
sg15
I814
sbsI241
(icore.engine
StatCollection
p976
(dp977
g3
I200
sg4
F14.359487056732178
sg5
F16.606584906578064
sg6
I2
sg7
F33.21316981315613
sg8
F16.606658101081848
sg9
S'OK'
p978
sg11
S'14:10:25'
p979
sg13
I0
sg14
F33.213316202163696
sg15
I814
sbsI242
(icore.engine
StatCollection
p980
(dp981
g3
I200
sg4
F12.856801986694336
sg5
F15.790820956230164
sg6
I2
sg7
F31.581641912460327
sg8
F15.790890455245972
sg9
S'OK'
p982
sg11
S'14:10:25'
p983
sg13
I0
sg14
F31.581780910491943
sg15
I814
sbsI243
(icore.engine
StatCollection
p984
(dp985
g3
I200
sg4
F14.139239072799683
sg5
F16.614569544792175
sg6
I2
sg7
F33.22913908958435
sg8
F16.614655017852783
sg9
S'OK'
p986
sg11
S'14:10:25'
p987
sg13
I0
sg14
F33.229310035705566
sg15
I814
sbsI244
(icore.engine
StatCollection
p988
(dp989
g3
I200
sg4
F14.315043926239014
sg5
F16.891718983650208
sg6
I2
sg7
F33.783437967300415
sg8
F16.89177942276001
sg9
S'OK'
p990
sg11
S'14:10:25'
p991
sg13
I0
sg14
F33.78355884552002
sg15
I814
sbsI245
(icore.engine
StatCollection
p992
(dp993
g3
I200
sg4
F14.729335069656372
sg5
F17.060404419898987
sg6
I2
sg7
F34.120808839797974
sg8
F17.060487985610962
sg9
S'OK'
p994
sg11
S'14:10:25'
p995
sg13
I0
sg14
F34.120975971221924
sg15
I814
sbsI246
(icore.engine
StatCollection
p996
(dp997
g3
I200
sg4
F20.354485988616943
sg5
F20.354418992996216
sg6
I1
sg7
F20.354418992996216
sg8
F20.354485988616943
sg9
S'OK'
p998
sg11
S'14:10:25'
p999
sg13
I0
sg14
F20.354485988616943
sg15
I407
sbsI247
(icore.engine
StatCollection
p1000
(dp1001
g3
I200
sg4
F12.595372200012207
sg5
F15.83381998538971
sg6
I2
sg7
F31.66763997077942
sg8
F15.833881497383118
sg9
S'OK'
p1002
sg11
S'14:10:25'
p1003
sg13
I0
sg14
F31.667762994766235
sg15
I814
sbsI248
(icore.engine
StatCollection
p1004
(dp1005
g3
I200
sg4
F14.43586015701294
sg5
F14.498784065246582
sg6
I2
sg7
F28.997568130493164
sg8
F14.49888563156128
sg9
S'OK'
p1006
sg11
S'14:10:25'
p1007
sg13
I0
sg14
F28.99777126312256
sg15
I814
sbsI249
(icore.engine
StatCollection
p1008
(dp1009
g3
I200
sg4
F14.604781866073608
sg5
F16.97453999519348
sg6
I2
sg7
F33.94907999038696
sg8
F16.974609851837158
sg9
S'OK'
p1010
sg11
S'14:10:25'
p1011
sg13
I0
sg14
F33.949219703674316
sg15
I814
sbsI250
(icore.engine
StatCollection
p1012
(dp1013
g3
I200
sg4
F12.030096054077148
sg5
F15.539541959762573
sg6
I2
sg7
F31.079083919525146
sg8
F15.539661526679993
sg9
S'OK'
p1014
sg11
S'14:10:25'
p1015
sg13
I0
sg14
F31.079323053359985
sg15
I814
sbsI251
(icore.engine
StatCollection
p1016
(dp1017
g3
I200
sg4
F12.159152030944824
sg5
F15.61275053024292
sg6
I2
sg7
F31.22550106048584
sg8
F15.612836003303528
sg9
S'OK'
p1018
sg11
S'14:10:25'
p1019
sg13
I0
sg14
F31.225672006607056
sg15
I814
sbsI252
(icore.engine
StatCollection
p1020
(dp1021
g3
I200
sg4
F12.677531003952026
sg5
F15.746657013893127
sg6
I2
sg7
F31.493314027786255
sg8
F15.74673843383789
sg9
S'OK'
p1022
sg11
S'14:10:25'
p1023
sg13
I0
sg14
F31.49347686767578
sg15
I814
sbsI253
(icore.engine
StatCollection
p1024
(dp1025
g3
I200
sg4
F12.393272876739502
sg5
F15.554087042808533
sg6
I2
sg7
F31.108174085617065
sg8
F15.554149985313416
sg9
S'OK'
p1026
sg11
S'14:10:25'
p1027
sg13
I0
sg14
F31.10829997062683
sg15
I814
sbsI254
(icore.engine
StatCollection
p1028
(dp1029
g3
I200
sg4
F11.045331001281738
sg5
F14.970785975456238
sg6
I2
sg7
F29.941571950912476
sg8
F14.970856428146362
sg9
S'OK'
p1030
sg11
S'14:10:25'
p1031
sg13
I0
sg14
F29.941712856292725
sg15
I814
sbsI255
(icore.engine
StatCollection
p1032
(dp1033
g3
I200
sg4
F11.835031032562256
sg5
F15.346339106559753
sg6
I2
sg7
F30.692678213119507
sg8
F15.346407055854797
sg9
S'OK'
p1034
sg11
S'14:10:25'
p1035
sg13
I0
sg14
F30.692814111709595
sg15
I814
sbsI256
(icore.engine
StatCollection
p1036
(dp1037
g3
I200
sg4
F13.914431095123291
sg5
F13.152618050575256
sg6
I2
sg7
F26.305236101150513
sg8
F13.152692556381226
sg9
S'OK'
p1038
sg11
S'14:10:25'
p1039
sg13
I0
sg14
F26.30538511276245
sg15
I814
sbsI257
(icore.engine
StatCollection
p1040
(dp1041
g3
I200
sg4
F13.178666114807129
sg5
F14.759028911590576
sg6
I2
sg7
F29.518057823181152
sg8
F14.759108543395996
sg9
S'OK'
p1042
sg11
S'14:10:25'
p1043
sg13
I0
sg14
F29.518217086791992
sg15
I814
sbsI258
(icore.engine
StatCollection
p1044
(dp1045
g3
I200
sg4
F13.775820016860962
sg5
F16.548102498054504
sg6
I2
sg7
F33.09620499610901
sg8
F16.54816746711731
sg9
S'OK'
p1046
sg11
S'14:10:25'
p1047
sg13
I0
sg14
F33.09633493423462
sg15
I814
sbsI259
(icore.engine
StatCollection
p1048
(dp1049
g3
I200
sg4
F14.582644939422607
sg5
F14.872840881347656
sg6
I2
sg7
F29.745681762695312
sg8
F14.872927904129028
sg9
S'OK'
p1050
sg11
S'14:10:25'
p1051
sg13
I0
sg14
F29.745855808258057
sg15
I814
sbsI260
(icore.engine
StatCollection
p1052
(dp1053
g3
I200
sg4
F13.536741971969604
sg5
F16.424546003341675
sg6
I2
sg7
F32.84909200668335
sg8
F16.42464292049408
sg9
S'OK'
p1054
sg11
S'14:10:25'
p1055
sg13
I0
sg14
F32.84928584098816
sg15
I814
sbsI261
(icore.engine
StatCollection
p1056
(dp1057
g3
I200
sg4
F15.720721006393433
sg5
F14.990901589393616
sg6
I2
sg7
F29.98180317878723
sg8
F14.990968108177185
sg9
S'OK'
p1058
sg11
S'14:10:25'
p1059
sg13
I0
sg14
F29.98193621635437
sg15
I814
sbsI262
(icore.engine
StatCollection
p1060
(dp1061
g3
I200
sg4
F13.656154155731201
sg5
F16.473136067390442
sg6
I2
sg7
F32.946272134780884
sg8
F16.473243594169617
sg9
S'OK'
p1062
sg11
S'14:10:25'
p1063
sg13
I0
sg14
F32.94648718833923
sg15
I814
sbsI263
(icore.engine
StatCollection
p1064
(dp1065
g3
I200
sg4
F12.22838306427002
sg5
F14.65665853023529
sg6
I2
sg7
F29.31331706047058
sg8
F14.656737565994263
sg9
S'OK'
p1066
sg11
S'14:10:25'
p1067
sg13
I0
sg14
F29.313475131988525
sg15
I814
sbsI264
(icore.engine
StatCollection
p1068
(dp1069
g3
I200
sg4
F14.899816036224365
sg5
F17.10447347164154
sg6
I2
sg7
F34.20894694328308
sg8
F17.104535460472107
sg9
S'OK'
p1070
sg11
S'14:10:25'
p1071
sg13
I0
sg14
F34.209070920944214
sg15
I814
sbsI265
(icore.engine
StatCollection
p1072
(dp1073
g3
I200
sg4
F10.78581690788269
sg5
F14.017916440963745
sg6
I2
sg7
F28.03583288192749
sg8
F14.01802396774292
sg9
S'OK'
p1074
sg11
S'14:10:25'
p1075
sg13
I0
sg14
F28.03604793548584
sg15
I814
sbsI266
(icore.engine
StatCollection
p1076
(dp1077
g3
I200
sg4
F14.454102993011475
sg5
F16.90657651424408
sg6
I2
sg7
F33.81315302848816
sg8
F16.906641006469727
sg9
S'OK'
p1078
sg11
S'14:10:25'
p1079
sg13
I0
sg14
F33.81328201293945
sg15
I814
sbsI267
(icore.engine
StatCollection
p1080
(dp1081
g3
I200
sg4
F14.512753963470459
sg5
F16.90337383747101
sg6
I2
sg7
F33.80674767494202
sg8
F16.903438448905945
sg9
S'OK'
p1082
sg11
S'14:10:25'
p1083
sg13
I0
sg14
F33.80687689781189
sg15
I814
sbsI268
(icore.engine
StatCollection
p1084
(dp1085
g3
I200
sg4
F14.263381004333496
sg5
F16.802474975585938
sg6
I2
sg7
F33.604949951171875
sg8
F16.80255091190338
sg9
S'OK'
p1086
sg11
S'14:10:25'
p1087
sg13
I0
sg14
F33.60510182380676
sg15
I814
sbsI269
(icore.engine
StatCollection
p1088
(dp1089
g3
I200
sg4
F13.34382700920105
sg5
F16.32514452934265
sg6
I2
sg7
F32.6502890586853
sg8
F16.32521653175354
sg9
S'OK'
p1090
sg11
S'14:10:25'
p1091
sg13
I0
sg14
F32.65043306350708
sg15
I814
sbsI270
(icore.engine
StatCollection
p1092
(dp1093
g3
I200
sg4
F12.527789115905762
sg5
F15.750378012657166
sg6
I2
sg7
F31.50075602531433
sg8
F15.750483632087708
sg9
S'OK'
p1094
sg11
S'14:10:25'
p1095
sg13
I0
sg14
F31.500967264175415
sg15
I814
sbsI271
(icore.engine
StatCollection
p1096
(dp1097
g3
I200
sg4
F13.844614028930664
sg5
F16.43997848033905
sg6
I2
sg7
F32.8799569606781
sg8
F16.44007897377014
sg9
S'OK'
p1098
sg11
S'14:10:25'
p1099
sg13
I0
sg14
F32.88015794754028
sg15
I814
sbsI272
(icore.engine
StatCollection
p1100
(dp1101
g3
I200
sg4
F12.971084117889404
sg5
F14.119726538658142
sg6
I2
sg7
F28.239453077316284
sg8
F14.119850039482117
sg9
S'OK'
p1102
sg11
S'14:10:25'
p1103
sg13
I0
sg14
F28.239700078964233
sg15
I814
sbsI273
(icore.engine
StatCollection
p1104
(dp1105
g3
I200
sg4
F14.761008024215698
sg5
F16.768288493156433
sg6
I2
sg7
F33.536576986312866
sg8
F16.76836347579956
sg9
S'OK'
p1106
sg11
S'14:10:25'
p1107
sg13
I0
sg14
F33.53672695159912
sg15
I814
sbsI274
(icore.engine
StatCollection
p1108
(dp1109
g3
I200
sg4
F13.771317958831787
sg5
F16.536257028579712
sg6
I2
sg7
F33.072514057159424
sg8
F16.536667943000793
sg9
S'OK'
p1110
sg11
S'14:10:25'
p1111
sg13
I0
sg14
F33.07333588600159
sg15
I814
sbsI275
(icore.engine
StatCollection
p1112
(dp1113
g3
I200
sg4
F14.195075035095215
sg5
F16.484405875205994
sg6
I2
sg7
F32.96881175041199
sg8
F16.48448145389557
sg9
S'OK'
p1114
sg11
S'14:10:25'
p1115
sg13
I0
sg14
F32.96896290779114
sg15
I814
sbsI276
(icore.engine
StatCollection
p1116
(dp1117
g3
I200
sg4
F13.171082019805908
sg5
F15.672549486160278
sg6
I2
sg7
F31.345098972320557
sg8
F15.672669529914856
sg9
S'OK'
p1118
sg11
S'14:10:25'
p1119
sg13
I0
sg14
F31.345339059829712
sg15
I814
sbsI277
(icore.engine
StatCollection
p1120
(dp1121
g3
I200
sg4
F21.03101897239685
sg5
F21.030944108963013
sg6
I1
sg7
F21.030944108963013
sg8
F21.03101897239685
sg9
S'OK'
p1122
sg11
S'14:10:25'
p1123
sg13
I0
sg14
F21.03101897239685
sg15
I407
sbsI278
(icore.engine
StatCollection
p1124
(dp1125
g3
I200
sg4
F11.319253921508789
sg5
F15.091821551322937
sg6
I2
sg7
F30.183643102645874
sg8
F15.091912031173706
sg9
S'OK'
p1126
sg11
S'14:10:25'
p1127
sg13
I0
sg14
F30.183824062347412
sg15
I814
sbsI279
(icore.engine
StatCollection
p1128
(dp1129
g3
I200
sg4
F14.735427856445312
sg5
F17.019567489624023
sg6
I2
sg7
F34.03913497924805
sg8
F17.019619464874268
sg9
S'OK'
p1130
sg11
S'14:10:25'
p1131
sg13
I0
sg14
F34.039238929748535
sg15
I814
sbsI280
(icore.engine
StatCollection
p1132
(dp1133
g3
I200
sg4
F13.997302055358887
sg5
F16.43143856525421
sg6
I2
sg7
F32.86287713050842
sg8
F16.4315025806427
sg9
S'OK'
p1134
sg11
S'14:10:25'
p1135
sg13
I0
sg14
F32.8630051612854
sg15
I814
sbsI281
(icore.engine
StatCollection
p1136
(dp1137
g3
I200
sg4
F12.824079036712646
sg5
F15.826546549797058
sg6
I2
sg7
F31.653093099594116
sg8
F15.826629996299744
sg9
S'OK'
p1138
sg11
S'14:10:25'
p1139
sg13
I0
sg14
F31.653259992599487
sg15
I814
sbsI282
(icore.engine
StatCollection
p1140
(dp1141
g3
I200
sg4
F14.647077083587646
sg5
F16.970224022865295
sg6
I2
sg7
F33.94044804573059
sg8
F16.970292568206787
sg9
S'OK'
p1142
sg11
S'14:10:25'
p1143
sg13
I0
sg14
F33.940585136413574
sg15
I814
sbsI283
(icore.engine
StatCollection
p1144
(dp1145
g3
I200
sg4
F14.46895980834961
sg5
F13.946980476379395
sg6
I2
sg7
F27.89396095275879
sg8
F13.947107911109924
sg9
S'OK'
p1146
sg11
S'14:10:25'
p1147
sg13
I0
sg14
F27.89421582221985
sg15
I814
sbsI284
(icore.engine
StatCollection
p1148
(dp1149
g3
I200
sg4
F14.630071878433228
sg5
F16.96386444568634
sg6
I2
sg7
F33.92772889137268
sg8
F16.96394145488739
sg9
S'OK'
p1150
sg11
S'14:10:25'
p1151
sg13
I0
sg14
F33.92788290977478
sg15
I814
sbsI285
(icore.engine
StatCollection
p1152
(dp1153
g3
I200
sg4
F13.223391056060791
sg5
F15.941752910614014
sg6
I2
sg7
F31.883505821228027
sg8
F15.941828489303589
sg9
S'OK'
p1154
sg11
S'14:10:25'
p1155
sg13
I0
sg14
F31.883656978607178
sg15
I814
sbsI286
(icore.engine
StatCollection
p1156
(dp1157
g3
I200
sg4
F13.95591402053833
sg5
F16.61283552646637
sg6
I2
sg7
F33.22567105293274
sg8
F16.612913489341736
sg9
S'OK'
p1158
sg11
S'14:10:25'
p1159
sg13
I0
sg14
F33.22582697868347
sg15
I814
sbsI287
(icore.engine
StatCollection
p1160
(dp1161
g3
I200
sg4
F20.9481680393219
sg5
F20.948083877563477
sg6
I1
sg7
F20.948083877563477
sg8
F20.9481680393219
sg9
S'OK'
p1162
sg11
S'14:10:25'
p1163
sg13
I0
sg14
F20.9481680393219
sg15
I407
sbsI288
(icore.engine
StatCollection
p1164
(dp1165
g3
I200
sg4
F14.886247158050537
sg5
F17.087454676628113
sg6
I2
sg7
F34.174909353256226
sg8
F17.087517142295837
sg9
S'OK'
p1166
sg11
S'14:10:25'
p1167
sg13
I0
sg14
F34.175034284591675
sg15
I814
sbsI289
(icore.engine
StatCollection
p1168
(dp1169
g3
I200
sg4
F13.496114015579224
sg5
F16.407049536705017
sg6
I2
sg7
F32.814099073410034
sg8
F16.407120943069458
sg9
S'OK'
p1170
sg11
S'14:10:25'
p1171
sg13
I0
sg14
F32.814241886138916
sg15
I814
sbsI290
(icore.engine
StatCollection
p1172
(dp1173
g3
I200
sg4
F14.758544921875
sg5
F17.020427465438843
sg6
I2
sg7
F34.040854930877686
sg8
F17.020500898361206
sg9
S'OK'
p1174
sg11
S'14:10:25'
p1175
sg13
I0
sg14
F34.04100179672241
sg15
I814
sbsI291
(icore.engine
StatCollection
p1176
(dp1177
g3
I200
sg4
F13.779586791992188
sg5
F16.51789402961731
sg6
I2
sg7
F33.03578805923462
sg8
F16.517958402633667
sg9
S'OK'
p1178
sg11
S'14:10:25'
p1179
sg13
I0
sg14
F33.035916805267334
sg15
I814
sbsI292
(icore.engine
StatCollection
p1180
(dp1181
g3
I200
sg4
F14.400710105895996
sg5
F16.843424558639526
sg6
I2
sg7
F33.68684911727905
sg8
F16.843492031097412
sg9
S'OK'
p1182
sg11
S'14:10:25'
p1183
sg13
I0
sg14
F33.686984062194824
sg15
I814
sbsI293
(icore.engine
StatCollection
p1184
(dp1185
g3
I200
sg4
F14.642813205718994
sg5
F16.986294984817505
sg6
I2
sg7
F33.97258996963501
sg8
F16.98636758327484
sg9
S'OK'
p1186
sg11
S'14:10:25'
p1187
sg13
I0
sg14
F33.97273516654968
sg15
I814
sbsI294
(icore.engine
StatCollection
p1188
(dp1189
g3
I200
sg4
F14.498676061630249
sg5
F16.912845611572266
sg6
I2
sg7
F33.82569122314453
sg8
F16.912910103797913
sg9
S'OK'
p1190
sg11
S'14:10:25'
p1191
sg13
I0
sg14
F33.825820207595825
sg15
I814
sbsI295
(icore.engine
StatCollection
p1192
(dp1193
g3
I200
sg4
F13.245998859405518
sg5
F15.693389415740967
sg6
I2
sg7
F31.386778831481934
sg8
F15.693463921546936
sg9
S'OK'
p1194
sg11
S'14:10:25'
p1195
sg13
I0
sg14
F31.386927843093872
sg15
I814
sbsI296
(icore.engine
StatCollection
p1196
(dp1197
g3
I200
sg4
F14.913808107376099
sg5
F17.08338451385498
sg6
I2
sg7
F34.16676902770996
sg8
F17.083459615707397
sg9
S'OK'
p1198
sg11
S'14:10:25'
p1199
sg13
I0
sg14
F34.166919231414795
sg15
I814
sbsI297
(icore.engine
StatCollection
p1200
(dp1201
g3
I200
sg4
F14.538429975509644
sg5
F16.89918839931488
sg6
I2
sg7
F33.79837679862976
sg8
F16.899258494377136
sg9
S'OK'
p1202
sg11
S'14:10:25'
p1203
sg13
I0
sg14
F33.79851698875427
sg15
I814
sbsI298
(icore.engine
StatCollection
p1204
(dp1205
g3
I200
sg4
F14.739402055740356
sg5
F17.030393481254578
sg6
I2
sg7
F34.060786962509155
sg8
F17.030492544174194
sg9
S'OK'
p1206
sg11
S'14:10:25'
p1207
sg13
I0
sg14
F34.06098508834839
sg15
I814
sbsI299
(icore.engine
StatCollection
p1208
(dp1209
g3
I200
sg4
F13.386316061019897
sg5
F13.946094989776611
sg6
I2
sg7
F27.892189979553223
sg8
F13.946173429489136
sg9
S'OK'
p1210
sg11
S'14:10:25'
p1211
sg13
I0
sg14
F27.89234685897827
sg15
I814
sbsI300
(icore.engine
StatCollection
p1212
(dp1213
g3
I200
sg4
F11.78445816040039
sg5
F15.524035930633545
sg6
I2
sg7
F31.04807186126709
sg8
F15.524110078811646
sg9
S'OK'
p1214
sg11
S'14:10:25'
p1215
sg13
I0
sg14
F31.04822015762329
sg15
I814
sbsI301
(icore.engine
StatCollection
p1216
(dp1217
g3
I200
sg4
F14.482783079147339
sg5
F16.858632564544678
sg6
I2
sg7
F33.717265129089355
sg8
F16.858720541000366
sg9
S'OK'
p1218
sg11
S'14:10:25'
p1219
sg13
I0
sg14
F33.71744108200073
sg15
I814
sbsI302
(icore.engine
StatCollection
p1220
(dp1221
g3
I200
sg4
F17.552597999572754
sg5
F15.818511962890625
sg6
I2
sg7
F31.63702392578125
sg8
F15.818629503250122
sg9
S'OK'
p1222
sg11
S'14:10:25'
p1223
sg13
I0
sg14
F31.637259006500244
sg15
I814
sbsI303
(icore.engine
StatCollection
p1224
(dp1225
g3
I200
sg4
F12.834501028060913
sg5
F15.913679003715515
sg6
I2
sg7
F31.82735800743103
sg8
F15.913757085800171
sg9
S'OK'
p1226
sg11
S'14:10:25'
p1227
sg13
I0
sg14
F31.827514171600342
sg15
I814
sbsI304
(icore.engine
StatCollection
p1228
(dp1229
g3
I200
sg4
F14.538788080215454
sg5
F16.669346928596497
sg6
I2
sg7
F33.33869385719299
sg8
F16.669437527656555
sg9
S'OK'
p1230
sg11
S'14:10:25'
p1231
sg13
I0
sg14
F33.33887505531311
sg15
I814
sbsI305
(icore.engine
StatCollection
p1232
(dp1233
g3
I200
sg4
F14.552466869354248
sg5
F16.590901374816895
sg6
I2
sg7
F33.18180274963379
sg8
F16.59099543094635
sg9
S'OK'
p1234
sg11
S'14:10:25'
p1235
sg13
I0
sg14
F33.1819908618927
sg15
I814
sbsI306
(icore.engine
StatCollection
p1236
(dp1237
g3
I200
sg4
F14.869677066802979
sg5
F17.063941478729248
sg6
I2
sg7
F34.127882957458496
sg8
F17.064016461372375
sg9
S'OK'
p1238
sg11
S'14:10:25'
p1239
sg13
I0
sg14
F34.12803292274475
sg15
I814
sbsI307
(icore.engine
StatCollection
p1240
(dp1241
g3
I200
sg4
F14.75418210029602
sg5
F17.063419461250305
sg6
I2
sg7
F34.12683892250061
sg8
F17.063515067100525
sg9
S'OK'
p1242
sg11
S'14:10:25'
p1243
sg13
I0
sg14
F34.12703013420105
sg15
I814
sbsI308
(icore.engine
StatCollection
p1244
(dp1245
g3
I200
sg4
F19.625736951828003
sg5
F19.625664949417114
sg6
I1
sg7
F19.625664949417114
sg8
F19.625736951828003
sg9
S'OK'
p1246
sg11
S'14:10:25'
p1247
sg13
I0
sg14
F19.625736951828003
sg15
I407
sbsI309
(icore.engine
StatCollection
p1248
(dp1249
g3
I200
sg4
F12.584404945373535
sg5
F14.797499418258667
sg6
I2
sg7
F29.594998836517334
sg8
F14.79757845401764
sg9
S'OK'
p1250
sg11
S'14:10:25'
p1251
sg13
I0
sg14
F29.59515690803528
sg15
I814
sbsI310
(icore.engine
StatCollection
p1252
(dp1253
g3
I200
sg4
F13.795489072799683
sg5
F16.518010139465332
sg6
I2
sg7
F33.036020278930664
sg8
F16.518086075782776
sg9
S'OK'
p1254
sg11
S'14:10:25'
p1255
sg13
I0
sg14
F33.03617215156555
sg15
I814
sbsI311
(icore.engine
StatCollection
p1256
(dp1257
g3
I200
sg4
F13.783092975616455
sg5
F16.20967698097229
sg6
I2
sg7
F32.41935396194458
sg8
F16.209762573242188
sg9
S'OK'
p1258
sg11
S'14:10:25'
p1259
sg13
I0
sg14
F32.419525146484375
sg15
I814
sbsI312
(icore.engine
StatCollection
p1260
(dp1261
g3
I200
sg4
F13.80762505531311
sg5
F14.19987404346466
sg6
I2
sg7
F28.39974808692932
sg8
F14.19996452331543
sg9
S'OK'
p1262
sg11
S'14:10:25'
p1263
sg13
I0
sg14
F28.39992904663086
sg15
I814
sbsI313
(icore.engine
StatCollection
p1264
(dp1265
g3
I200
sg4
F14.484282970428467
sg5
F16.864696979522705
sg6
I2
sg7
F33.72939395904541
sg8
F16.864791989326477
sg9
S'OK'
p1266
sg11
S'14:10:25'
p1267
sg13
I0
sg14
F33.729583978652954
sg15
I814
sbsI314
(icore.engine
StatCollection
p1268
(dp1269
g3
I200
sg4
F14.803749799728394
sg5
F17.02180790901184
sg6
I2
sg7
F34.04361581802368
sg8
F17.023893356323242
sg9
S'OK'
p1270
sg11
S'14:10:25'
p1271
sg13
I0
sg14
F34.047786712646484
sg15
I814
sbsI315
(icore.engine
StatCollection
p1272
(dp1273
g3
I200
sg4
F14.261070966720581
sg5
F16.752865433692932
sg6
I2
sg7
F33.505730867385864
sg8
F16.752944469451904
sg9
S'OK'
p1274
sg11
S'14:10:25'
p1275
sg13
I0
sg14
F33.50588893890381
sg15
I814
sbsI316
(icore.engine
StatCollection
p1276
(dp1277
g3
I200
sg4
F13.607838869094849
sg5
F16.108535408973694
sg6
I2
sg7
F32.21707081794739
sg8
F16.108621835708618
sg9
S'OK'
p1278
sg11
S'14:10:25'
p1279
sg13
I0
sg14
F32.217243671417236
sg15
I814
sbsI317
(icore.engine
StatCollection
p1280
(dp1281
g3
I200
sg4
F20.619221210479736
sg5
F20.61912703514099
sg6
I1
sg7
F20.61912703514099
sg8
F20.619221210479736
sg9
S'OK'
p1282
sg11
S'14:10:25'
p1283
sg13
I0
sg14
F20.619221210479736
sg15
I407
sbsI318
(icore.engine
StatCollection
p1284
(dp1285
g3
I200
sg4
F14.756817102432251
sg5
F16.991185426712036
sg6
I2
sg7
F33.98237085342407
sg8
F16.99125349521637
sg9
S'OK'
p1286
sg11
S'14:10:25'
p1287
sg13
I0
sg14
F33.98250699043274
sg15
I814
sbsI319
(icore.engine
StatCollection
p1288
(dp1289
g3
I200
sg4
F14.773401975631714
sg5
F16.997286438941956
sg6
I2
sg7
F33.99457287788391
sg8
F16.99734592437744
sg9
S'OK'
p1290
sg11
S'14:10:25'
p1291
sg13
I0
sg14
F33.99469184875488
sg15
I814
sbsI320
(icore.engine
StatCollection
p1292
(dp1293
g3
I200
sg4
F14.782196044921875
sg5
F17.028298020362854
sg6
I2
sg7
F34.05659604072571
sg8
F17.028364539146423
sg9
S'OK'
p1294
sg11
S'14:10:25'
p1295
sg13
I0
sg14
F34.05672907829285
sg15
I814
sbsI321
(icore.engine
StatCollection
p1296
(dp1297
g3
I200
sg4
F14.06692385673523
sg5
F16.428252458572388
sg6
I2
sg7
F32.856504917144775
sg8
F16.428321480751038
sg9
S'OK'
p1298
sg11
S'14:10:25'
p1299
sg13
I0
sg14
F32.856642961502075
sg15
I814
sbsI322
(icore.engine
StatCollection
p1300
(dp1301
g3
I200
sg4
F14.918472051620483
sg5
F17.061121463775635
sg6
I2
sg7
F34.12224292755127
sg8
F17.06119191646576
sg9
S'OK'
p1302
sg11
S'14:10:25'
p1303
sg13
I0
sg14
F34.12238383293152
sg15
I814
sbsI323
(icore.engine
StatCollection
p1304
(dp1305
g3
I200
sg4
F11.993529081344604
sg5
F15.465213060379028
sg6
I2
sg7
F30.930426120758057
sg8
F15.465282082557678
sg9
S'OK'
p1306
sg11
S'14:10:25'
p1307
sg13
I0
sg14
F30.930564165115356
sg15
I814
sbsI324
(icore.engine
StatCollection
p1308
(dp1309
g3
I200
sg4
F14.794337034225464
sg5
F17.01047158241272
sg6
I2
sg7
F34.02094316482544
sg8
F17.010560512542725
sg9
S'OK'
p1310
sg11
S'14:10:25'
p1311
sg13
I0
sg14
F34.02112102508545
sg15
I814
sbsI325
(icore.engine
StatCollection
p1312
(dp1313
g3
I200
sg4
F13.786164999008179
sg5
F16.35892343521118
sg6
I2
sg7
F32.71784687042236
sg8
F16.358997464179993
sg9
S'OK'
p1314
sg11
S'14:10:25'
p1315
sg13
I0
sg14
F32.717994928359985
sg15
I814
sbsI326
(icore.engine
StatCollection
p1316
(dp1317
g3
I200
sg4
F14.195170164108276
sg5
F16.705716133117676
sg6
I2
sg7
F33.41143226623535
sg8
F16.705796599388123
sg9
S'OK'
p1318
sg11
S'14:10:25'
p1319
sg13
I0
sg14
F33.411593198776245
sg15
I814
sbsI327
(icore.engine
StatCollection
p1320
(dp1321
g3
I200
sg4
F12.723026990890503
sg5
F12.494842052459717
sg6
I2
sg7
F24.989684104919434
sg8
F12.494937539100647
sg9
S'OK'
p1322
sg11
S'14:10:25'
p1323
sg13
I0
sg14
F24.989875078201294
sg15
I814
sbsI328
(icore.engine
StatCollection
p1324
(dp1325
g3
I200
sg4
F14.7360360622406
sg5
F16.846109986305237
sg6
I2
sg7
F33.692219972610474
sg8
F16.846211075782776
sg9
S'OK'
p1326
sg11
S'14:10:25'
p1327
sg13
I0
sg14
F33.69242215156555
sg15
I814
sbsI329
(icore.engine
StatCollection
p1328
(dp1329
g3
I200
sg4
F15.029279947280884
sg5
F16.98882257938385
sg6
I2
sg7
F33.9776451587677
sg8
F16.98889708518982
sg9
S'OK'
p1330
sg11
S'14:10:25'
p1331
sg13
I0
sg14
F33.97779417037964
sg15
I814
sbsI330
(icore.engine
StatCollection
p1332
(dp1333
g3
I200
sg4
F13.821709871292114
sg5
F15.650617480278015
sg6
I2
sg7
F31.30123496055603
sg8
F15.65072751045227
sg9
S'OK'
p1334
sg11
S'14:10:25'
p1335
sg13
I0
sg14
F31.30145502090454
sg15
I814
sbsI331
(icore.engine
StatCollection
p1336
(dp1337
g3
I200
sg4
F13.11363410949707
sg5
F16.148743987083435
sg6
I2
sg7
F32.29748797416687
sg8
F16.14881455898285
sg9
S'OK'
p1338
sg11
S'14:10:25'
p1339
sg13
I0
sg14
F32.2976291179657
sg15
I814
sbsI332
(icore.engine
StatCollection
p1340
(dp1341
g3
I200
sg4
F15.418157815933228
sg5
F15.82157039642334
sg6
I2
sg7
F31.64314079284668
sg8
F15.82166039943695
sg9
S'OK'
p1342
sg11
S'14:10:25'
p1343
sg13
I0
sg14
F31.6433207988739
sg15
I814
sbsI333
(icore.engine
StatCollection
p1344
(dp1345
g3
I200
sg4
F15.311422109603882
sg5
F17.09186613559723
sg6
I2
sg7
F34.18373227119446
sg8
F17.091930150985718
sg9
S'OK'
p1346
sg11
S'14:10:25'
p1347
sg13
I0
sg14
F34.183860301971436
sg15
I814
sbsI334
(icore.engine
StatCollection
p1348
(dp1349
g3
I200
sg4
F14.346360921859741
sg5
F16.63979744911194
sg6
I2
sg7
F33.27959489822388
sg8
F16.639865517616272
sg9
S'OK'
p1350
sg11
S'14:10:25'
p1351
sg13
I0
sg14
F33.279731035232544
sg15
I814
sbsI335
(icore.engine
StatCollection
p1352
(dp1353
g3
I200
sg4
F20.865237951278687
sg5
F20.86515188217163
sg6
I1
sg7
F20.86515188217163
sg8
F20.865237951278687
sg9
S'OK'
p1354
sg11
S'14:10:25'
p1355
sg13
I0
sg14
F20.865237951278687
sg15
I407
sbsI336
(icore.engine
StatCollection
p1356
(dp1357
g3
I200
sg4
F14.872239828109741
sg5
F14.856488943099976
sg6
I2
sg7
F29.71297788619995
sg8
F14.856590986251831
sg9
S'OK'
p1358
sg11
S'14:10:25'
p1359
sg13
I0
sg14
F29.713181972503662
sg15
I814
sbsI337
(icore.engine
StatCollection
p1360
(dp1361
g3
I200
sg4
F13.72008991241455
sg5
F16.32814610004425
sg6
I2
sg7
F32.6562922000885
sg8
F16.32822346687317
sg9
S'OK'
p1362
sg11
S'14:10:25'
p1363
sg13
I0
sg14
F32.65644693374634
sg15
I814
sbsI338
(icore.engine
StatCollection
p1364
(dp1365
g3
I200
sg4
F14.64467716217041
sg5
F16.823067545890808
sg6
I2
sg7
F33.646135091781616
sg8
F16.823137521743774
sg9
S'OK'
p1366
sg11
S'14:10:25'
p1367
sg13
I0
sg14
F33.64627504348755
sg15
I814
sbsI339
(icore.engine
StatCollection
p1368
(dp1369
g3
I200
sg4
F15.066073894500732
sg5
F16.821078419685364
sg6
I2
sg7
F33.64215683937073
sg8
F16.821152925491333
sg9
S'OK'
p1370
sg11
S'14:10:25'
p1371
sg13
I0
sg14
F33.642305850982666
sg15
I814
sbsI340
(icore.engine
StatCollection
p1372
(dp1373
g3
I200
sg4
F14.802757024765015
sg5
F16.691553592681885
sg6
I2
sg7
F33.38310718536377
sg8
F16.69163703918457
sg9
S'OK'
p1374
sg11
S'14:10:25'
p1375
sg13
I0
sg14
F33.38327407836914
sg15
I814
sbsI341
(icore.engine
StatCollection
p1376
(dp1377
g3
I200
sg4
F15.507925987243652
sg5
F14.908295512199402
sg6
I2
sg7
F29.816591024398804
sg8
F14.90839397907257
sg9
S'OK'
p1378
sg11
S'14:10:25'
p1379
sg13
I0
sg14
F29.81678795814514
sg15
I814
sbsI342
(icore.engine
StatCollection
p1380
(dp1381
g3
I200
sg4
F19.750782012939453
sg5
F19.750633001327515
sg6
I1
sg7
F19.750633001327515
sg8
F19.750782012939453
sg9
S'OK'
p1382
sg11
S'14:10:25'
p1383
sg13
I0
sg14
F19.750782012939453
sg15
I407
sbsI343
(icore.engine
StatCollection
p1384
(dp1385
g3
I200
sg4
F12.220386981964111
sg5
F15.567662954330444
sg6
I2
sg7
F31.13532590866089
sg8
F15.567774415016174
sg9
S'OK'
p1386
sg11
S'14:10:25'
p1387
sg13
I0
sg14
F31.13554883003235
sg15
I814
sbsI344
(icore.engine
StatCollection
p1388
(dp1389
g3
I200
sg4
F13.822016954421997
sg5
F16.339736938476562
sg6
I2
sg7
F32.679473876953125
sg8
F16.33982491493225
sg9
S'OK'
p1390
sg11
S'14:10:25'
p1391
sg13
I0
sg14
F32.6796498298645
sg15
I814
sbsI345
(icore.engine
StatCollection
p1392
(dp1393
g3
I200
sg4
F12.159847974777222
sg5
F14.940557479858398
sg6
I2
sg7
F29.881114959716797
sg8
F14.940637946128845
sg9
S'OK'
p1394
sg11
S'14:10:25'
p1395
sg13
I0
sg14
F29.88127589225769
sg15
I814
sbsI346
(icore.engine
StatCollection
p1396
(dp1397
g3
I200
sg4
F14.838556051254272
sg5
F17.01142692565918
sg6
I2
sg7
F34.02285385131836
sg8
F17.01149845123291
sg9
S'OK'
p1398
sg11
S'14:10:25'
p1399
sg13
I0
sg14
F34.02299690246582
sg15
I814
sbsI347
(icore.engine
StatCollection
p1400
(dp1401
g3
I200
sg4
F14.8059241771698
sg5
F16.828100562095642
sg6
I2
sg7
F33.656201124191284
sg8
F16.828186631202698
sg9
S'OK'
p1402
sg11
S'14:10:25'
p1403
sg13
I0
sg14
F33.656373262405396
sg15
I814
sbsI348
(icore.engine
StatCollection
p1404
(dp1405
g3
I200
sg4
F13.907960891723633
sg5
F13.960227966308594
sg6
I2
sg7
F27.920455932617188
sg8
F13.960333347320557
sg9
S'OK'
p1406
sg11
S'14:10:25'
p1407
sg13
I0
sg14
F27.920666694641113
sg15
I814
sbsI349
(icore.engine
StatCollection
p1408
(dp1409
g3
I200
sg4
F13.10043478012085
sg5
F15.924419403076172
sg6
I2
sg7
F31.848838806152344
sg8
F15.924524903297424
sg9
S'OK'
p1410
sg11
S'14:10:25'
p1411
sg13
I0
sg14
F31.84904980659485
sg15
I814
sbsI350
(icore.engine
StatCollection
p1412
(dp1413
g3
I200
sg4
F14.688400983810425
sg5
F16.716712594032288
sg6
I2
sg7
F33.433425188064575
sg8
F16.716804027557373
sg9
S'OK'
p1414
sg11
S'14:10:25'
p1415
sg13
I0
sg14
F33.433608055114746
sg15
I814
sbsI351
(icore.engine
StatCollection
p1416
(dp1417
g3
I200
sg4
F14.296327114105225
sg5
F16.50560200214386
sg6
I2
sg7
F33.01120400428772
sg8
F16.505673050880432
sg9
S'OK'
p1418
sg11
S'14:10:25'
p1419
sg13
I0
sg14
F33.011346101760864
sg15
I814
sbsI352
(icore.engine
StatCollection
p1420
(dp1421
g3
I200
sg4
F20.014355897903442
sg5
F20.014275074005127
sg6
I1
sg7
F20.014275074005127
sg8
F20.014355897903442
sg9
S'OK'
p1422
sg11
S'14:10:25'
p1423
sg13
I0
sg14
F20.014355897903442
sg15
I407
sbsI353
(icore.engine
StatCollection
p1424
(dp1425
g3
I200
sg4
F14.870673894882202
sg5
F17.020824551582336
sg6
I2
sg7
F34.04164910316467
sg8
F17.02089297771454
sg9
S'OK'
p1426
sg11
S'14:10:25'
p1427
sg13
I0
sg14
F34.04178595542908
sg15
I814
sbsI354
(icore.engine
StatCollection
p1428
(dp1429
g3
I200
sg4
F14.786840200424194
sg5
F16.981995105743408
sg6
I2
sg7
F33.963990211486816
sg8
F16.98206615447998
sg9
S'OK'
p1430
sg11
S'14:10:25'
p1431
sg13
I0
sg14
F33.96413230895996
sg15
I814
sbsI355
(icore.engine
StatCollection
p1432
(dp1433
g3
I200
sg4
F14.382950067520142
sg5
F16.779627561569214
sg6
I2
sg7
F33.55925512313843
sg8
F16.779701590538025
sg9
S'OK'
p1434
sg11
S'14:10:25'
p1435
sg13
I0
sg14
F33.55940318107605
sg15
I814
sbsI356
(icore.engine
StatCollection
p1436
(dp1437
g3
I200
sg4
F14.171711921691895
sg5
F16.67789888381958
sg6
I2
sg7
F33.35579776763916
sg8
F16.677969932556152
sg9
S'OK'
p1438
sg11
S'14:10:25'
p1439
sg13
I0
sg14
F33.355939865112305
sg15
I814
sbsI357
(icore.engine
StatCollection
p1440
(dp1441
g3
I200
sg4
F13.668612957000732
sg5
F16.09890902042389
sg6
I2
sg7
F32.19781804084778
sg8
F16.099012970924377
sg9
S'OK'
p1442
sg11
S'14:10:25'
p1443
sg13
I0
sg14
F32.198025941848755
sg15
I814
sbsI358
(icore.engine
StatCollection
p1444
(dp1445
g3
I200
sg4
F14.691529035568237
sg5
F16.94575047492981
sg6
I2
sg7
F33.89150094985962
sg8
F16.945812463760376
sg9
S'OK'
p1446
sg11
S'14:10:25'
p1447
sg13
I0
sg14
F33.89162492752075
sg15
I814
sbsI359
(icore.engine
StatCollection
p1448
(dp1449
g3
I200
sg4
F14.963351011276245
sg5
F17.049194931983948
sg6
I2
sg7
F34.098389863967896
sg8
F17.04925799369812
sg9
S'OK'
p1450
sg11
S'14:10:25'
p1451
sg13
I0
sg14
F34.09851598739624
sg15
I814
sbsI360
(icore.engine
StatCollection
p1452
(dp1453
g3
I200
sg4
F13.422056198120117
sg5
F16.315581917762756
sg6
I2
sg7
F32.63116383552551
sg8
F16.315699100494385
sg9
S'OK'
p1454
sg11
S'14:10:25'
p1455
sg13
I0
sg14
F32.63139820098877
sg15
I814
sbsI361
(icore.engine
StatCollection
p1456
(dp1457
g3
I200
sg4
F13.928025960922241
sg5
F16.238050937652588
sg6
I2
sg7
F32.476101875305176
sg8
F16.238123893737793
sg9
S'OK'
p1458
sg11
S'14:10:25'
p1459
sg13
I0
sg14
F32.476247787475586
sg15
I814
sbsI362
(icore.engine
StatCollection
p1460
(dp1461
g3
I200
sg4
F13.234588146209717
sg5
F15.982094407081604
sg6
I2
sg7
F31.964188814163208
sg8
F15.982172012329102
sg9
S'OK'
p1462
sg11
S'14:10:25'
p1463
sg13
I0
sg14
F31.964344024658203
sg15
I814
sbsI363
(icore.engine
StatCollection
p1464
(dp1465
g3
I200
sg4
F14.436821937561035
sg5
F16.803197503089905
sg6
I2
sg7
F33.60639500617981
sg8
F16.8033105134964
sg9
S'OK'
p1466
sg11
S'14:10:25'
p1467
sg13
I0
sg14
F33.6066210269928
sg15
I814
sbsI364
(icore.engine
StatCollection
p1468
(dp1469
g3
I200
sg4
F14.415113925933838
sg5
F16.84947693347931
sg6
I2
sg7
F33.69895386695862
sg8
F16.849529504776
sg9
S'OK'
p1470
sg11
S'14:10:25'
p1471
sg13
I0
sg14
F33.699059009552
sg15
I814
sbsI365
(icore.engine
StatCollection
p1472
(dp1473
g3
I200
sg4
F13.203098058700562
sg5
F15.872560501098633
sg6
I2
sg7
F31.745121002197266
sg8
F15.872630953788757
sg9
S'OK'
p1474
sg11
S'14:10:25'
p1475
sg13
I0
sg14
F31.745261907577515
sg15
I814
sbsI366
(icore.engine
StatCollection
p1476
(dp1477
g3
I200
sg4
F13.526922941207886
sg5
F16.366291046142578
sg6
I2
sg7
F32.732582092285156
sg8
F16.366365432739258
sg9
S'OK'
p1478
sg11
S'14:10:25'
p1479
sg13
I0
sg14
F32.732730865478516
sg15
I814
sbsI367
(icore.engine
StatCollection
p1480
(dp1481
g3
I200
sg4
F14.90076994895935
sg5
F17.021528601646423
sg6
I2
sg7
F34.04305720329285
sg8
F17.02160155773163
sg9
S'OK'
p1482
sg11
S'14:10:25'
p1483
sg13
I0
sg14
F34.04320311546326
sg15
I814
sbsI368
(icore.engine
StatCollection
p1484
(dp1485
g3
I200
sg4
F15.178576946258545
sg5
F14.269132018089294
sg6
I2
sg7
F28.53826403617859
sg8
F14.269226431846619
sg9
S'OK'
p1486
sg11
S'14:10:25'
p1487
sg13
I0
sg14
F28.538452863693237
sg15
I814
sbsI369
(icore.engine
StatCollection
p1488
(dp1489
g3
I200
sg4
F14.843729019165039
sg5
F17.000038027763367
sg6
I2
sg7
F34.00007605552673
sg8
F17.000102043151855
sg9
S'OK'
p1490
sg11
S'14:10:25'
p1491
sg13
I0
sg14
F34.00020408630371
sg15
I814
sbsI370
(icore.engine
StatCollection
p1492
(dp1493
g3
I200
sg4
F14.514001846313477
sg5
F16.821062088012695
sg6
I2
sg7
F33.64212417602539
sg8
F16.821144938468933
sg9
S'OK'
p1494
sg11
S'14:10:25'
p1495
sg13
I0
sg14
F33.642289876937866
sg15
I814
sbsI371
(icore.engine
StatCollection
p1496
(dp1497
g3
I200
sg4
F14.062027215957642
sg5
F16.143356561660767
sg6
I2
sg7
F32.28671312332153
sg8
F16.143439054489136
sg9
S'OK'
p1498
sg11
S'14:10:25'
p1499
sg13
I0
sg14
F32.28687810897827
sg15
I814
sbsI372
(icore.engine
StatCollection
p1500
(dp1501
g3
I200
sg4
F13.993117809295654
sg5
F16.252782464027405
sg6
I2
sg7
F32.50556492805481
sg8
F16.252849459648132
sg9
S'OK'
p1502
sg11
S'14:10:25'
p1503
sg13
I0
sg14
F32.505698919296265
sg15
I814
sbsI373
(icore.engine
StatCollection
p1504
(dp1505
g3
I200
sg4
F14.95483684539795
sg5
F16.9238840341568
sg6
I2
sg7
F33.8477680683136
sg8
F16.923959374427795
sg9
S'OK'
p1506
sg11
S'14:10:25'
p1507
sg13
I0
sg14
F33.84791874885559
sg15
I814
sbsI374
(icore.engine
StatCollection
p1508
(dp1509
g3
I200
sg4
F14.795574188232422
sg5
F16.977583646774292
sg6
I2
sg7
F33.955167293548584
sg8
F16.977670192718506
sg9
S'OK'
p1510
sg11
S'14:10:25'
p1511
sg13
I0
sg14
F33.95534038543701
sg15
I814
sbsI375
(icore.engine
StatCollection
p1512
(dp1513
g3
I200
sg4
F13.924960136413574
sg5
F16.558770060539246
sg6
I2
sg7
F33.11754012107849
sg8
F16.55887806415558
sg9
S'OK'
p1514
sg11
S'14:10:25'
p1515
sg13
I0
sg14
F33.11775612831116
sg15
I814
sbsI376
(icore.engine
StatCollection
p1516
(dp1517
g3
I200
sg4
F14.81889009475708
sg5
F16.97954249382019
sg6
I2
sg7
F33.95908498764038
sg8
F16.979628562927246
sg9
S'OK'
p1518
sg11
S'14:10:25'
p1519
sg13
I0
sg14
F33.95925712585449
sg15
I814
sbsI377
(icore.engine
StatCollection
p1520
(dp1521
g3
I200
sg4
F12.842998027801514
sg5
F15.688473105430603
sg6
I2
sg7
F31.376946210861206
sg8
F15.68855905532837
sg9
S'OK'
p1522
sg11
S'14:10:25'
p1523
sg13
I0
sg14
F31.37711811065674
sg15
I814
sbsI378
(icore.engine
StatCollection
p1524
(dp1525
g3
I200
sg4
F11.870771884918213
sg5
F15.349684476852417
sg6
I2
sg7
F30.699368953704834
sg8
F15.349749445915222
sg9
S'OK'
p1526
sg11
S'14:10:25'
p1527
sg13
I0
sg14
F30.699498891830444
sg15
I814
sbsI379
(icore.engine
StatCollection
p1528
(dp1529
g3
I200
sg4
F14.72559905052185
sg5
F16.944172978401184
sg6
I2
sg7
F33.88834595680237
sg8
F16.944249510765076
sg9
S'OK'
p1530
sg11
S'14:10:25'
p1531
sg13
I0
sg14
F33.88849902153015
sg15
I814
sbsI380
(icore.engine
StatCollection
p1532
(dp1533
g3
I200
sg4
F21.435922145843506
sg5
F21.435850143432617
sg6
I1
sg7
F21.435850143432617
sg8
F21.435922145843506
sg9
S'OK'
p1534
sg11
S'14:10:25'
p1535
sg13
I0
sg14
F21.435922145843506
sg15
I407
sbsI381
(icore.engine
StatCollection
p1536
(dp1537
g3
I200
sg4
F20.170441150665283
sg5
F20.170374155044556
sg6
I1
sg7
F20.170374155044556
sg8
F20.170441150665283
sg9
S'OK'
p1538
sg11
S'14:10:25'
p1539
sg13
I0
sg14
F20.170441150665283
sg15
I407
sbsI382
(icore.engine
StatCollection
p1540
(dp1541
g3
I200
sg4
F14.860013008117676
sg5
F17.00270402431488
sg6
I2
sg7
F34.00540804862976
sg8
F17.00276744365692
sg9
S'OK'
p1542
sg11
S'14:10:25'
p1543
sg13
I0
sg14
F34.00553488731384
sg15
I814
sbsI383
(icore.engine
StatCollection
p1544
(dp1545
g3
I200
sg4
F14.73651385307312
sg5
F16.795228004455566
sg6
I2
sg7
F33.59045600891113
sg8
F16.795295476913452
sg9
S'OK'
p1546
sg11
S'14:10:25'
p1547
sg13
I0
sg14
F33.590590953826904
sg15
I814
sbsI384
(icore.engine
StatCollection
p1548
(dp1549
g3
I200
sg4
F15.466566801071167
sg5
F17.03440499305725
sg6
I2
sg7
F34.0688099861145
sg8
F17.034496903419495
sg9
S'OK'
p1550
sg11
S'14:10:25'
p1551
sg13
I0
sg14
F34.06899380683899
sg15
I814
sbsI385
(icore.engine
StatCollection
p1552
(dp1553
g3
I200
sg4
F15.067399978637695
sg5
F16.970608949661255
sg6
I2
sg7
F33.94121789932251
sg8
F16.97069001197815
sg9
S'OK'
p1554
sg11
S'14:10:25'
p1555
sg13
I0
sg14
F33.9413800239563
sg15
I814
sbsI386
(icore.engine
StatCollection
p1556
(dp1557
g3
I200
sg4
F14.860620975494385
sg5
F16.988086462020874
sg6
I2
sg7
F33.97617292404175
sg8
F16.988144993782043
sg9
S'OK'
p1558
sg11
S'14:10:25'
p1559
sg13
I0
sg14
F33.97628998756409
sg15
I814
sbsI387
(icore.engine
StatCollection
p1560
(dp1561
g3
I200
sg4
F13.286648988723755
sg5
F16.20428204536438
sg6
I2
sg7
F32.40856409072876
sg8
F16.204341530799866
sg9
S'OK'
p1562
sg11
S'14:10:25'
p1563
sg13
I0
sg14
F32.40868306159973
sg15
I814
sbsI388
(icore.engine
StatCollection
p1564
(dp1565
g3
I200
sg4
F20.464513063430786
sg5
F20.46444010734558
sg6
I1
sg7
F20.46444010734558
sg8
F20.464513063430786
sg9
S'OK'
p1566
sg11
S'14:10:25'
p1567
sg13
I0
sg14
F20.464513063430786
sg15
I407
sbsI389
(icore.engine
StatCollection
p1568
(dp1569
g3
I200
sg4
F16.965487957000732
sg5
F16.096866011619568
sg6
I2
sg7
F32.193732023239136
sg8
F16.096964478492737
sg9
S'OK'
p1570
sg11
S'14:10:25'
p1571
sg13
I0
sg14
F32.193928956985474
sg15
I814
sbsI390
(icore.engine
StatCollection
p1572
(dp1573
g3
I200
sg4
F15.166500091552734
sg5
F17.009633541107178
sg6
I2
sg7
F34.019267082214355
sg8
F17.00969660282135
sg9
S'OK'
p1574
sg11
S'14:10:25'
p1575
sg13
I0
sg14
F34.0193932056427
sg15
I814
sbsI391
(icore.engine
StatCollection
p1576
(dp1577
g3
I200
sg4
F14.02428913116455
sg5
F16.58679747581482
sg6
I2
sg7
F33.17359495162964
sg8
F16.586879014968872
sg9
S'OK'
p1578
sg11
S'14:10:25'
p1579
sg13
I0
sg14
F33.173758029937744
sg15
I814
sbsI392
(icore.engine
StatCollection
p1580
(dp1581
g3
I200
sg4
F20.878218173980713
sg5
F20.87812614440918
sg6
I1
sg7
F20.87812614440918
sg8
F20.878218173980713
sg9
S'OK'
p1582
sg11
S'14:10:25'
p1583
sg13
I0
sg14
F20.878218173980713
sg15
I407
sbsI393
(icore.engine
StatCollection
p1584
(dp1585
g3
I200
sg4
F14.237231969833374
sg5
F16.6821448802948
sg6
I2
sg7
F33.3642897605896
sg8
F16.68224048614502
sg9
S'OK'
p1586
sg11
S'14:10:25'
p1587
sg13
I0
sg14
F33.36448097229004
sg15
I814
sbsI394
(icore.engine
StatCollection
p1588
(dp1589
g3
I200
sg4
F14.557797908782959
sg5
F16.705472946166992
sg6
I2
sg7
F33.410945892333984
sg8
F16.705543398857117
sg9
S'OK'
p1590
sg11
S'14:10:25'
p1591
sg13
I0
sg14
F33.41108679771423
sg15
I814
sbsI395
(icore.engine
StatCollection
p1592
(dp1593
g3
I200
sg4
F11.89679217338562
sg5
F15.2066890001297
sg6
I2
sg7
F30.4133780002594
sg8
F15.206777095794678
sg9
S'OK'
p1594
sg11
S'14:10:25'
p1595
sg13
I0
sg14
F30.413554191589355
sg15
I814
sbsI396
(icore.engine
StatCollection
p1596
(dp1597
g3
I200
sg4
F14.58334493637085
sg5
F16.854324102401733
sg6
I2
sg7
F33.70864820480347
sg8
F16.854386568069458
sg9
S'OK'
p1598
sg11
S'14:10:25'
p1599
sg13
I0
sg14
F33.708773136138916
sg15
I814
sbsI397
(icore.engine
StatCollection
p1600
(dp1601
g3
I200
sg4
F14.113151788711548
sg5
F16.398348450660706
sg6
I2
sg7
F32.79669690132141
sg8
F16.398422837257385
sg9
S'OK'
p1602
sg11
S'14:10:25'
p1603
sg13
I0
sg14
F32.79684567451477
sg15
I814
sbsI398
(icore.engine
StatCollection
p1604
(dp1605
g3
I200
sg4
F14.674719095230103
sg5
F16.885138511657715
sg6
I2
sg7
F33.77027702331543
sg8
F16.885236024856567
sg9
S'OK'
p1606
sg11
S'14:10:25'
p1607
sg13
I0
sg14
F33.770472049713135
sg15
I814
sbsI399
(icore.engine
StatCollection
p1608
(dp1609
g3
I200
sg4
F14.01646614074707
sg5
F16.428065061569214
sg6
I2
sg7
F32.85613012313843
sg8
F16.428141593933105
sg9
S'OK'
p1610
sg11
S'14:10:25'
p1611
sg13
I0
sg14
F32.85628318786621
sg15
I814
sbsI400
(icore.engine
StatCollection
p1612
(dp1613
g3
I200
sg4
F14.895115852355957
sg5
F17.000335931777954
sg6
I2
sg7
F34.00067186355591
sg8
F17.00038993358612
sg9
S'OK'
p1614
sg11
S'14:10:25'
p1615
sg13
I0
sg14
F34.00077986717224
sg15
I814
sbsI401
(icore.engine
StatCollection
p1616
(dp1617
g3
I200
sg4
F14.724922895431519
sg5
F16.901549458503723
sg6
I2
sg7
F33.803098917007446
sg8
F16.90161895751953
sg9
S'OK'
p1618
sg11
S'14:10:25'
p1619
sg13
I0
sg14
F33.80323791503906
sg15
I814
sbsI402
(icore.engine
StatCollection
p1620
(dp1621
g3
I200
sg4
F12.705650091171265
sg5
F15.91146993637085
sg6
I2
sg7
F31.8229398727417
sg8
F15.911567568778992
sg9
S'OK'
p1622
sg11
S'14:10:25'
p1623
sg13
I0
sg14
F31.823135137557983
sg15
I814
sbsI403
(icore.engine
StatCollection
p1624
(dp1625
g3
I200
sg4
F14.76267695426941
sg5
F16.93549942970276
sg6
I2
sg7
F33.87099885940552
sg8
F16.935589909553528
sg9
S'OK'
p1626
sg11
S'14:10:25'
p1627
sg13
I0
sg14
F33.871179819107056
sg15
I814
sbsI404
(icore.engine
StatCollection
p1628
(dp1629
g3
I200
sg4
F20.11587119102478
sg5
F20.115792989730835
sg6
I1
sg7
F20.115792989730835
sg8
F20.11587119102478
sg9
S'OK'
p1630
sg11
S'14:10:25'
p1631
sg13
I0
sg14
F20.11587119102478
sg15
I407
sbsI405
(icore.engine
StatCollection
p1632
(dp1633
g3
I200
sg4
F10.936864852905273
sg5
F14.701704025268555
sg6
I2
sg7
F29.40340805053711
sg8
F14.701774001121521
sg9
S'OK'
p1634
sg11
S'14:10:25'
p1635
sg13
I0
sg14
F29.403548002243042
sg15
I814
sbsI406
(icore.engine
StatCollection
p1636
(dp1637
g3
I200
sg4
F14.742501020431519
sg5
F16.79504108428955
sg6
I2
sg7
F33.5900821685791
sg8
F16.795103073120117
sg9
S'OK'
p1638
sg11
S'14:10:25'
p1639
sg13
I0
sg14
F33.590206146240234
sg15
I814
sbsI407
(icore.engine
StatCollection
p1640
(dp1641
g3
I200
sg4
F12.925017833709717
sg5
F14.896885991096497
sg6
I2
sg7
F29.793771982192993
sg8
F14.89695692062378
sg9
S'OK'
p1642
sg11
S'14:10:25'
p1643
sg13
I0
sg14
F29.79391384124756
sg15
I814
sbsI408
(icore.engine
StatCollection
p1644
(dp1645
g3
I200
sg4
F14.414861917495728
sg5
F16.742074966430664
sg6
I2
sg7
F33.48414993286133
sg8
F16.74215340614319
sg9
S'OK'
p1646
sg11
S'14:10:25'
p1647
sg13
I0
sg14
F33.48430681228638
sg15
I814
sbsI409
(icore.engine
StatCollection
p1648
(dp1649
g3
I200
sg4
F21.894517183303833
sg5
F21.89443612098694
sg6
I1
sg7
F21.89443612098694
sg8
F21.894517183303833
sg9
S'OK'
p1650
sg11
S'14:10:25'
p1651
sg13
I0
sg14
F21.894517183303833
sg15
I407
sbsI410
(icore.engine
StatCollection
p1652
(dp1653
g3
I200
sg4
F13.800666093826294
sg5
F14.120062470436096
sg6
I2
sg7
F28.240124940872192
sg8
F14.120142102241516
sg9
S'OK'
p1654
sg11
S'14:10:25'
p1655
sg13
I0
sg14
F28.240284204483032
sg15
I814
sbsI411
(icore.engine
StatCollection
p1656
(dp1657
g3
I200
sg4
F14.358110904693604
sg5
F16.590160965919495
sg6
I2
sg7
F33.18032193183899
sg8
F16.59025239944458
sg9
S'OK'
p1658
sg11
S'14:10:25'
p1659
sg13
I0
sg14
F33.18050479888916
sg15
I814
sbsI412
(icore.engine
StatCollection
p1660
(dp1661
g3
I200
sg4
F14.756272792816162
sg5
F16.616177916526794
sg6
I2
sg7
F33.23235583305359
sg8
F16.616249322891235
sg9
S'OK'
p1662
sg11
S'14:10:25'
p1663
sg13
I0
sg14
F33.23249864578247
sg15
I814
sbsI413
(icore.engine
StatCollection
p1664
(dp1665
g3
I200
sg4
F14.536360025405884
sg5
F16.96279752254486
sg6
I2
sg7
F33.92559504508972
sg8
F16.962867975234985
sg9
S'OK'
p1666
sg11
S'14:10:25'
p1667
sg13
I0
sg14
F33.92573595046997
sg15
I814
sbsI414
(icore.engine
StatCollection
p1668
(dp1669
g3
I200
sg4
F14.105921983718872
sg5
F16.60306406021118
sg6
I2
sg7
F33.20612812042236
sg8
F16.603139996528625
sg9
S'OK'
p1670
sg11
S'14:10:25'
p1671
sg13
I0
sg14
F33.20627999305725
sg15
I814
sbsI415
(icore.engine
StatCollection
p1672
(dp1673
g3
I200
sg4
F14.305779933929443
sg5
F16.878349542617798
sg6
I2
sg7
F33.756699085235596
sg8
F16.878448486328125
sg9
S'OK'
p1674
sg11
S'14:10:25'
p1675
sg13
I0
sg14
F33.75689697265625
sg15
I814
sbsI416
(icore.engine
StatCollection
p1676
(dp1677
g3
I200
sg4
F14.42511796951294
sg5
F16.44457447528839
sg6
I2
sg7
F32.88914895057678
sg8
F16.44464647769928
sg9
S'OK'
p1678
sg11
S'14:10:25'
p1679
sg13
I0
sg14
F32.88929295539856
sg15
I814
sbsI417
(icore.engine
StatCollection
p1680
(dp1681
g3
I200
sg4
F13.097184896469116
sg5
F15.961793422698975
sg6
I2
sg7
F31.92358684539795
sg8
F15.961885452270508
sg9
S'OK'
p1682
sg11
S'14:10:25'
p1683
sg13
I0
sg14
F31.923770904541016
sg15
I814
sbsI418
(icore.engine
StatCollection
p1684
(dp1685
g3
I200
sg4
F13.37055492401123
sg5
F16.221158504486084
sg6
I2
sg7
F32.44231700897217
sg8
F16.22122848033905
sg9
S'OK'
p1686
sg11
S'14:10:25'
p1687
sg13
I0
sg14
F32.4424569606781
sg15
I814
sbsI419
(icore.engine
StatCollection
p1688
(dp1689
g3
I200
sg4
F14.330815076828003
sg5
F16.538910031318665
sg6
I2
sg7
F33.07782006263733
sg8
F16.53900396823883
sg9
S'OK'
p1690
sg11
S'14:10:25'
p1691
sg13
I0
sg14
F33.07800793647766
sg15
I814
sbsI420
(icore.engine
StatCollection
p1692
(dp1693
g3
I200
sg4
F14.313596963882446
sg5
F16.209210991859436
sg6
I2
sg7
F32.41842198371887
sg8
F16.209288954734802
sg9
S'OK'
p1694
sg11
S'14:10:25'
p1695
sg13
I0
sg14
F32.418577909469604
sg15
I814
sbsI421
(icore.engine
StatCollection
p1696
(dp1697
g3
I200
sg4
F20.091784954071045
sg5
F20.09171485900879
sg6
I1
sg7
F20.09171485900879
sg8
F20.091784954071045
sg9
S'OK'
p1698
sg11
S'14:10:25'
p1699
sg13
I0
sg14
F20.091784954071045
sg15
I407
sbsI422
(icore.engine
StatCollection
p1700
(dp1701
g3
I200
sg4
F13.6699960231781
sg5
F16.204254508018494
sg6
I2
sg7
F32.40850901603699
sg8
F16.204338431358337
sg9
S'OK'
p1702
sg11
S'14:10:25'
p1703
sg13
I0
sg14
F32.408676862716675
sg15
I814
sbsI423
(icore.engine
StatCollection
p1704
(dp1705
g3
I200
sg4
F12.994362115859985
sg5
F16.026041984558105
sg6
I2
sg7
F32.05208396911621
sg8
F16.02610409259796
sg9
S'OK'
p1706
sg11
S'14:10:25'
p1707
sg13
I0
sg14
F32.05220818519592
sg15
I814
sbsI424
(icore.engine
StatCollection
p1708
(dp1709
g3
I200
sg4
F14.71649694442749
sg5
F16.89042341709137
sg6
I2
sg7
F33.78084683418274
sg8
F16.890490889549255
sg9
S'OK'
p1710
sg11
S'14:10:25'
p1711
sg13
I0
sg14
F33.78098177909851
sg15
I814
sbsI425
(icore.engine
StatCollection
p1712
(dp1713
g3
I200
sg4
F14.279235124588013
sg5
F16.546034574508667
sg6
I2
sg7
F33.092069149017334
sg8
F16.546109557151794
sg9
S'OK'
p1714
sg11
S'14:10:25'
p1715
sg13
I0
sg14
F33.09221911430359
sg15
I814
sbsI426
(icore.engine
StatCollection
p1716
(dp1717
g3
I200
sg4
F14.589480876922607
sg5
F17.009530067443848
sg6
I2
sg7
F34.019060134887695
sg8
F17.009621024131775
sg9
S'OK'
p1718
sg11
S'14:10:25'
p1719
sg13
I0
sg14
F34.01924204826355
sg15
I814
sbsI427
(icore.engine
StatCollection
p1720
(dp1721
g3
I200
sg4
F12.674026012420654
sg5
F15.677976965904236
sg6
I2
sg7
F31.35595393180847
sg8
F15.678057432174683
sg9
S'OK'
p1722
sg11
S'14:10:25'
p1723
sg13
I0
sg14
F31.356114864349365
sg15
I814
sbsI428
(icore.engine
StatCollection
p1724
(dp1725
g3
I200
sg4
F14.290281057357788
sg5
F16.366706013679504
sg6
I2
sg7
F32.73341202735901
sg8
F16.366772532463074
sg9
S'OK'
p1726
sg11
S'14:10:25'
p1727
sg13
I0
sg14
F32.73354506492615
sg15
I814
sbsI429
(icore.engine
StatCollection
p1728
(dp1729
g3
I200
sg4
F14.070935010910034
sg5
F16.592310547828674
sg6
I2
sg7
F33.18462109565735
sg8
F16.59238052368164
sg9
S'OK'
p1730
sg11
S'14:10:25'
p1731
sg13
I0
sg14
F33.18476104736328
sg15
I814
sbsI430
(icore.engine
StatCollection
p1732
(dp1733
g3
I200
sg4
F12.178765058517456
sg5
F15.68386709690094
sg6
I2
sg7
F31.36773419380188
sg8
F15.683928608894348
sg9
S'OK'
p1734
sg11
S'14:10:25'
p1735
sg13
I0
sg14
F31.367857217788696
sg15
I814
sbsI431
(icore.engine
StatCollection
p1736
(dp1737
g3
I200
sg4
F14.606181859970093
sg5
F16.83014440536499
sg6
I2
sg7
F33.66028881072998
sg8
F16.830223441123962
sg9
S'OK'
p1738
sg11
S'14:10:25'
p1739
sg13
I0
sg14
F33.660446882247925
sg15
I814
sbsI432
(icore.engine
StatCollection
p1740
(dp1741
g3
I200
sg4
F14.443753004074097
sg5
F15.063203930854797
sg6
I2
sg7
F30.126407861709595
sg8
F15.06330144405365
sg9
S'OK'
p1742
sg11
S'14:10:25'
p1743
sg13
I0
sg14
F30.1266028881073
sg15
I814
sbsI433
(icore.engine
StatCollection
p1744
(dp1745
g3
I200
sg4
F13.583869934082031
sg5
F13.87534248828888
sg6
I2
sg7
F27.75068497657776
sg8
F13.875445485115051
sg9
S'OK'
p1746
sg11
S'14:10:25'
p1747
sg13
I0
sg14
F27.750890970230103
sg15
I814
sbsI434
(icore.engine
StatCollection
p1748
(dp1749
g3
I200
sg4
F12.350656986236572
sg5
F15.701378464698792
sg6
I2
sg7
F31.402756929397583
sg8
F15.701452016830444
sg9
S'OK'
p1750
sg11
S'14:10:25'
p1751
sg13
I0
sg14
F31.40290403366089
sg15
I814
sbsI435
(icore.engine
StatCollection
p1752
(dp1753
g3
I200
sg4
F14.131477117538452
sg5
F15.478175520896912
sg6
I2
sg7
F30.956351041793823
sg8
F15.478274583816528
sg9
S'OK'
p1754
sg11
S'14:10:25'
p1755
sg13
I0
sg14
F30.956549167633057
sg15
I814
sbsI436
(icore.engine
StatCollection
p1756
(dp1757
g3
I200
sg4
F14.878824949264526
sg5
F16.96016001701355
sg6
I2
sg7
F33.9203200340271
sg8
F16.960250973701477
sg9
S'OK'
p1758
sg11
S'14:10:25'
p1759
sg13
I0
sg14
F33.920501947402954
sg15
I814
sbsI437
(icore.engine
StatCollection
p1760
(dp1761
g3
I200
sg4
F20.04654097557068
sg5
F20.04641890525818
sg6
I1
sg7
F20.04641890525818
sg8
F20.04654097557068
sg9
S'OK'
p1762
sg11
S'14:10:25'
p1763
sg13
I0
sg14
F20.04654097557068
sg15
I407
sbsI438
(icore.engine
StatCollection
p1764
(dp1765
g3
I200
sg4
F13.236330032348633
sg5
F16.01346743106842
sg6
I2
sg7
F32.02693486213684
sg8
F16.0135440826416
sg9
S'OK'
p1766
sg11
S'14:10:25'
p1767
sg13
I0
sg14
F32.0270881652832
sg15
I814
sbsI439
(icore.engine
StatCollection
p1768
(dp1769
g3
I200
sg4
F14.164171934127808
sg5
F16.472134113311768
sg6
I2
sg7
F32.944268226623535
sg8
F16.47219955921173
sg9
S'OK'
p1770
sg11
S'14:10:25'
p1771
sg13
I0
sg14
F32.94439911842346
sg15
I814
sbsI440
(icore.engine
StatCollection
p1772
(dp1773
g3
I200
sg4
F14.77052092552185
sg5
F16.908123016357422
sg6
I2
sg7
F33.816246032714844
sg8
F16.908188462257385
sg9
S'OK'
p1774
sg11
S'14:10:25'
p1775
sg13
I0
sg14
F33.81637692451477
sg15
I814
sbsI441
(icore.engine
StatCollection
p1776
(dp1777
g3
I200
sg4
F14.67694902420044
sg5
F16.874091506004333
sg6
I2
sg7
F33.74818301200867
sg8
F16.87417507171631
sg9
S'OK'
p1778
sg11
S'14:10:25'
p1779
sg13
I0
sg14
F33.74835014343262
sg15
I814
sbsI442
(icore.engine
StatCollection
p1780
(dp1781
g3
I200
sg4
F14.651618003845215
sg5
F16.860947489738464
sg6
I2
sg7
F33.72189497947693
sg8
F16.861034989356995
sg9
S'OK'
p1782
sg11
S'14:10:25'
p1783
sg13
I0
sg14
F33.72206997871399
sg15
I814
sbsI443
(icore.engine
StatCollection
p1784
(dp1785
g3
I200
sg4
F14.128029108047485
sg5
F16.455008149147034
sg6
I2
sg7
F32.91001629829407
sg8
F16.455090045928955
sg9
S'OK'
p1786
sg11
S'14:10:25'
p1787
sg13
I0
sg14
F32.91018009185791
sg15
I814
sbsI444
(icore.engine
StatCollection
p1788
(dp1789
g3
I200
sg4
F14.818960905075073
sg5
F16.932768940925598
sg6
I2
sg7
F33.865537881851196
sg8
F16.932833909988403
sg9
S'OK'
p1790
sg11
S'14:10:25'
p1791
sg13
I0
sg14
F33.86566781997681
sg15
I814
sbsI445
(icore.engine
StatCollection
p1792
(dp1793
g3
I200
sg4
F20.05433487892151
sg5
F20.05428194999695
sg6
I1
sg7
F20.05428194999695
sg8
F20.05433487892151
sg9
S'OK'
p1794
sg11
S'14:10:25'
p1795
sg13
I0
sg14
F20.05433487892151
sg15
I407
sbsI446
(icore.engine
StatCollection
p1796
(dp1797
g3
I200
sg4
F20.668349981307983
sg5
F20.66826820373535
sg6
I1
sg7
F20.66826820373535
sg8
F20.668349981307983
sg9
S'OK'
p1798
sg11
S'14:10:25'
p1799
sg13
I0
sg14
F20.668349981307983
sg15
I407
sbsI447
(icore.engine
StatCollection
p1800
(dp1801
g3
I200
sg4
F15.049134016036987
sg5
F16.90971350669861
sg6
I2
sg7
F33.81942701339722
sg8
F16.909793496131897
sg9
S'OK'
p1802
sg11
S'14:10:25'
p1803
sg13
I0
sg14
F33.819586992263794
sg15
I814
sbsI448
(icore.engine
StatCollection
p1804
(dp1805
g3
I200
sg4
F14.753105163574219
sg5
F16.89310657978058
sg6
I2
sg7
F33.78621315956116
sg8
F16.893189072608948
sg9
S'OK'
p1806
sg11
S'14:10:25'
p1807
sg13
I0
sg14
F33.786378145217896
sg15
I814
sbsI449
(icore.engine
StatCollection
p1808
(dp1809
g3
I200
sg4
F14.398069143295288
sg5
F16.71447503566742
sg6
I2
sg7
F33.42895007133484
sg8
F16.714534044265747
sg9
S'OK'
p1810
sg11
S'14:10:25'
p1811
sg13
I0
sg14
F33.429068088531494
sg15
I814
sbsI450
(icore.engine
StatCollection
p1812
(dp1813
g3
I200
sg4
F14.94173812866211
sg5
F16.965983986854553
sg6
I2
sg7
F33.931967973709106
sg8
F16.9660404920578
sg9
S'OK'
p1814
sg11
S'14:10:25'
p1815
sg13
I0
sg14
F33.9320809841156
sg15
I814
sbsI451
(icore.engine
StatCollection
p1816
(dp1817
g3
I200
sg4
F13.381988048553467
sg5
F16.068538069725037
sg6
I2
sg7
F32.13707613945007
sg8
F16.068605065345764
sg9
S'OK'
p1818
sg11
S'14:10:25'
p1819
sg13
I0
sg14
F32.13721013069153
sg15
I814
sbsI452
(icore.engine
StatCollection
p1820
(dp1821
g3
I200
sg4
F14.552881002426147
sg5
F14.381088495254517
sg6
I2
sg7
F28.762176990509033
sg8
F14.381193995475769
sg9
S'OK'
p1822
sg11
S'14:10:25'
p1823
sg13
I0
sg14
F28.762387990951538
sg15
I814
sbsI453
(icore.engine
StatCollection
p1824
(dp1825
g3
I200
sg4
F14.83552098274231
sg5
F16.954038977622986
sg6
I2
sg7
F33.90807795524597
sg8
F16.954097390174866
sg9
S'OK'
p1826
sg11
S'14:10:25'
p1827
sg13
I0
sg14
F33.90819478034973
sg15
I814
sbsI454
(icore.engine
StatCollection
p1828
(dp1829
g3
I200
sg4
F20.023510932922363
sg5
F20.02344512939453
sg6
I1
sg7
F20.02344512939453
sg8
F20.023510932922363
sg9
S'OK'
p1830
sg11
S'14:10:25'
p1831
sg13
I0
sg14
F20.023510932922363
sg15
I407
sbsI455
(icore.engine
StatCollection
p1832
(dp1833
g3
I200
sg4
F11.386126041412354
sg5
F15.065755486488342
sg6
I2
sg7
F30.131510972976685
sg8
F15.06582796573639
sg9
S'OK'
p1834
sg11
S'14:10:25'
p1835
sg13
I0
sg14
F30.13165593147278
sg15
I814
sbsI456
(icore.engine
StatCollection
p1836
(dp1837
g3
I200
sg4
F15.054531812667847
sg5
F16.91100251674652
sg6
I2
sg7
F33.82200503349304
sg8
F16.91108989715576
sg9
S'OK'
p1838
sg11
S'14:10:25'
p1839
sg13
I0
sg14
F33.82217979431152
sg15
I814
sbsI457
(icore.engine
StatCollection
p1840
(dp1841
g3
I200
sg4
F14.487447023391724
sg5
F16.61580002307892
sg6
I2
sg7
F33.23160004615784
sg8
F16.615883946418762
sg9
S'OK'
p1842
sg11
S'14:10:25'
p1843
sg13
I0
sg14
F33.231767892837524
sg15
I814
sbsI458
(icore.engine
StatCollection
p1844
(dp1845
g3
I200
sg4
F13.794755935668945
sg5
F16.586451411247253
sg6
I2
sg7
F33.17290282249451
sg8
F16.586530447006226
sg9
S'OK'
p1846
sg11
S'14:10:25'
p1847
sg13
I0
sg14
F33.17306089401245
sg15
I814
sbsI459
(icore.engine
StatCollection
p1848
(dp1849
g3
I200
sg4
F15.170622110366821
sg5
F16.959606528282166
sg6
I2
sg7
F33.91921305656433
sg8
F16.959668040275574
sg9
S'OK'
p1850
sg11
S'14:10:25'
p1851
sg13
I0
sg14
F33.91933608055115
sg15
I814
sbsI460
(icore.engine
StatCollection
p1852
(dp1853
g3
I200
sg4
F20.953027963638306
sg5
F20.952943086624146
sg6
I1
sg7
F20.952943086624146
sg8
F20.953027963638306
sg9
S'OK'
p1854
sg11
S'14:10:25'
p1855
sg13
I0
sg14
F20.953027963638306
sg15
I407
sbsI461
(icore.engine
StatCollection
p1856
(dp1857
g3
I200
sg4
F13.483643054962158
sg5
F16.12556302547455
sg6
I2
sg7
F32.2511260509491
sg8
F16.12563407421112
sg9
S'OK'
p1858
sg11
S'14:10:25'
p1859
sg13
I0
sg14
F32.25126814842224
sg15
I814
sbsI462
(icore.engine
StatCollection
p1860
(dp1861
g3
I200
sg4
F14.490625858306885
sg5
F16.766781449317932
sg6
I2
sg7
F33.533562898635864
sg8
F16.766859889030457
sg9
S'OK'
p1862
sg11
S'14:10:25'
p1863
sg13
I0
sg14
F33.53371977806091
sg15
I814
sbsI463
(icore.engine
StatCollection
p1864
(dp1865
g3
I200
sg4
F14.603935956954956
sg5
F16.68412697315216
sg6
I2
sg7
F33.36825394630432
sg8
F16.68418800830841
sg9
S'OK'
p1866
sg11
S'14:10:25'
p1867
sg13
I0
sg14
F33.36837601661682
sg15
I814
sbsI464
(icore.engine
StatCollection
p1868
(dp1869
g3
I200
sg4
F15.465694904327393
sg5
F16.97402596473694
sg6
I2
sg7
F33.94805192947388
sg8
F16.97409999370575
sg9
S'OK'
p1870
sg11
S'14:10:25'
p1871
sg13
I0
sg14
F33.9481999874115
sg15
I814
sbsI465
(icore.engine
StatCollection
p1872
(dp1873
g3
I200
sg4
F13.617830991744995
sg5
F16.30796194076538
sg6
I2
sg7
F32.61592388153076
sg8
F16.308029055595398
sg9
S'OK'
p1874
sg11
S'14:10:25'
p1875
sg13
I0
sg14
F32.616058111190796
sg15
I814
sbsI466
(icore.engine
StatCollection
p1876
(dp1877
g3
I200
sg4
F14.406922817230225
sg5
F16.701200366020203
sg6
I2
sg7
F33.402400732040405
sg8
F16.70126783847809
sg9
S'OK'
p1878
sg11
S'14:10:25'
p1879
sg13
I0
sg14
F33.40253567695618
sg15
I814
sbsI467
(icore.engine
StatCollection
p1880
(dp1881
g3
I200
sg4
F14.537427186965942
sg5
F16.45400559902191
sg6
I2
sg7
F32.90801119804382
sg8
F16.454081654548645
sg9
S'OK'
p1882
sg11
S'14:10:25'
p1883
sg13
I0
sg14
F32.90816330909729
sg15
I814
sbsI468
(icore.engine
StatCollection
p1884
(dp1885
g3
I200
sg4
F13.323354959487915
sg5
F15.849392294883728
sg6
I2
sg7
F31.698784589767456
sg8
F15.84947943687439
sg9
S'OK'
p1886
sg11
S'14:10:25'
p1887
sg13
I0
sg14
F31.69895887374878
sg15
I814
sbsI469
(icore.engine
StatCollection
p1888
(dp1889
g3
I200
sg4
F14.545293807983398
sg5
F16.78908348083496
sg6
I2
sg7
F33.57816696166992
sg8
F16.789164423942566
sg9
S'OK'
p1890
sg11
S'14:10:25'
p1891
sg13
I0
sg14
F33.57832884788513
sg15
I814
sbsI470
(icore.engine
StatCollection
p1892
(dp1893
g3
I200
sg4
F14.995389938354492
sg5
F16.868539094924927
sg6
I2
sg7
F33.73707818984985
sg8
F16.86860454082489
sg9
S'OK'
p1894
sg11
S'14:10:25'
p1895
sg13
I0
sg14
F33.73720908164978
sg15
I814
sbsI471
(icore.engine
StatCollection
p1896
(dp1897
g3
I200
sg4
F14.137088060379028
sg5
F16.58614158630371
sg6
I2
sg7
F33.17228317260742
sg8
F16.586203575134277
sg9
S'OK'
p1898
sg11
S'14:10:25'
p1899
sg13
I0
sg14
F33.172407150268555
sg15
I814
sbsI472
(icore.engine
StatCollection
p1900
(dp1901
g3
I200
sg4
F14.869683027267456
sg5
F16.922405004501343
sg6
I2
sg7
F33.844810009002686
sg8
F16.92247760295868
sg9
S'OK'
p1902
sg11
S'14:10:25'
p1903
sg13
I0
sg14
F33.84495520591736
sg15
I814
sbsI473
(icore.engine
StatCollection
p1904
(dp1905
g3
I200
sg4
F15.170531988143921
sg5
F16.94748544692993
sg6
I2
sg7
F33.89497089385986
sg8
F16.947572469711304
sg9
S'OK'
p1906
sg11
S'14:10:25'
p1907
sg13
I0
sg14
F33.89514493942261
sg15
I814
sbsI474
(icore.engine
StatCollection
p1908
(dp1909
g3
I200
sg4
F13.0801420211792
sg5
F15.395800948143005
sg6
I2
sg7
F30.79160189628601
sg8
F15.395887017250061
sg9
S'OK'
p1910
sg11
S'14:10:25'
p1911
sg13
I0
sg14
F30.791774034500122
sg15
I814
sbsI475
(icore.engine
StatCollection
p1912
(dp1913
g3
I200
sg4
F14.870230913162231
sg5
F16.921704530715942
sg6
I2
sg7
F33.843409061431885
sg8
F16.921772956848145
sg9
S'OK'
p1914
sg11
S'14:10:25'
p1915
sg13
I0
sg14
F33.84354591369629
sg15
I814
sbsI476
(icore.engine
StatCollection
p1916
(dp1917
g3
I200
sg4
F14.651020050048828
sg5
F16.68660795688629
sg6
I2
sg7
F33.37321591377258
sg8
F16.686694025993347
sg9
S'OK'
p1918
sg11
S'14:10:25'
p1919
sg13
I0
sg14
F33.373388051986694
sg15
I814
sbsI477
(icore.engine
StatCollection
p1920
(dp1921
g3
I200
sg4
F15.010823965072632
sg5
F16.872898936271667
sg6
I2
sg7
F33.745797872543335
sg8
F16.872967958450317
sg9
S'OK'
p1922
sg11
S'14:10:25'
p1923
sg13
I0
sg14
F33.745935916900635
sg15
I814
sbsI478
(icore.engine
StatCollection
p1924
(dp1925
g3
I200
sg4
F14.090603828430176
sg5
F16.56869387626648
sg6
I2
sg7
F33.13738775253296
sg8
F16.568772435188293
sg9
S'OK'
p1926
sg11
S'14:10:25'
p1927
sg13
I0
sg14
F33.13754487037659
sg15
I814
sbsI479
(icore.engine
StatCollection
p1928
(dp1929
g3
I200
sg4
F14.158929824829102
sg5
F16.5652494430542
sg6
I2
sg7
F33.1304988861084
sg8
F16.565316915512085
sg9
S'OK'
p1930
sg11
S'14:10:25'
p1931
sg13
I0
sg14
F33.13063383102417
sg15
I814
sbsI480
(icore.engine
StatCollection
p1932
(dp1933
g3
I200
sg4
F20.624281883239746
sg5
F20.624199867248535
sg6
I1
sg7
F20.624199867248535
sg8
F20.624281883239746
sg9
S'OK'
p1934
sg11
S'14:10:25'
p1935
sg13
I0
sg14
F20.624281883239746
sg15
I407
sbsI481
(icore.engine
StatCollection
p1936
(dp1937
g3
I200
sg4
F14.668767929077148
sg5
F16.69775903224945
sg6
I2
sg7
F33.3955180644989
sg8
F16.697827458381653
sg9
S'OK'
p1938
sg11
S'14:10:25'
p1939
sg13
I0
sg14
F33.395654916763306
sg15
I814
sbsI482
(icore.engine
StatCollection
p1940
(dp1941
g3
I200
sg4
F13.735125064849854
sg5
F15.898786425590515
sg6
I2
sg7
F31.79757285118103
sg8
F15.898859977722168
sg9
S'OK'
p1942
sg11
S'14:10:25'
p1943
sg13
I0
sg14
F31.797719955444336
sg15
I814
sbsI483
(icore.engine
StatCollection
p1944
(dp1945
g3
I200
sg4
F14.837007999420166
sg5
F16.60494101047516
sg6
I2
sg7
F33.20988202095032
sg8
F16.605023980140686
sg9
S'OK'
p1946
sg11
S'14:10:25'
p1947
sg13
I0
sg14
F33.21004796028137
sg15
I814
sbsI484
(icore.engine
StatCollection
p1948
(dp1949
g3
I200
sg4
F15.985242128372192
sg5
F15.629895567893982
sg6
I2
sg7
F31.259791135787964
sg8
F15.62996506690979
sg9
S'OK'
p1950
sg11
S'14:10:25'
p1951
sg13
I0
sg14
F31.25993013381958
sg15
I814
sbsI485
(icore.engine
StatCollection
p1952
(dp1953
g3
I200
sg4
F14.348192930221558
sg5
F16.693881392478943
sg6
I2
sg7
F33.387762784957886
sg8
F16.693954944610596
sg9
S'OK'
p1954
sg11
S'14:10:25'
p1955
sg13
I0
sg14
F33.38790988922119
sg15
I814
sbsI486
(icore.engine
StatCollection
p1956
(dp1957
g3
I200
sg4
F12.069352865219116
sg5
F15.311066508293152
sg6
I2
sg7
F30.622133016586304
sg8
F15.311137437820435
sg9
S'OK'
p1958
sg11
S'14:10:25'
p1959
sg13
I0
sg14
F30.62227487564087
sg15
I814
sbsI487
(icore.engine
StatCollection
p1960
(dp1961
g3
I200
sg4
F19.443762063980103
sg5
F19.44362187385559
sg6
I1
sg7
F19.44362187385559
sg8
F19.443762063980103
sg9
S'OK'
p1962
sg11
S'14:10:25'
p1963
sg13
I0
sg14
F19.443762063980103
sg15
I407
sbsI488
(icore.engine
StatCollection
p1964
(dp1965
g3
I200
sg4
F12.949588060379028
sg5
F15.971150517463684
sg6
I2
sg7
F31.942301034927368
sg8
F15.971230030059814
sg9
S'OK'
p1966
sg11
S'14:10:25'
p1967
sg13
I0
sg14
F31.94246006011963
sg15
I814
sbsI489
(icore.engine
StatCollection
p1968
(dp1969
g3
I200
sg4
F14.241967916488647
sg5
F16.61581814289093
sg6
I2
sg7
F33.23163628578186
sg8
F16.61592745780945
sg9
S'OK'
p1970
sg11
S'14:10:25'
p1971
sg13
I0
sg14
F33.2318549156189
sg15
I814
sbsI490
(icore.engine
StatCollection
p1972
(dp1973
g3
I200
sg4
F14.756638050079346
sg5
F16.873724579811096
sg6
I2
sg7
F33.74744915962219
sg8
F16.873801469802856
sg9
S'OK'
p1974
sg11
S'14:10:25'
p1975
sg13
I0
sg14
F33.74760293960571
sg15
I814
sbsI491
(icore.engine
StatCollection
p1976
(dp1977
g3
I200
sg4
F14.79225492477417
sg5
F16.87559449672699
sg6
I2
sg7
F33.75118899345398
sg8
F16.875664472579956
sg9
S'OK'
p1978
sg11
S'14:10:25'
p1979
sg13
I0
sg14
F33.75132894515991
sg15
I814
sbsI492
(icore.engine
StatCollection
p1980
(dp1981
g3
I200
sg4
F14.787158012390137
sg5
F16.873185396194458
sg6
I2
sg7
F33.746370792388916
sg8
F16.87325942516327
sg9
S'OK'
p1982
sg11
S'14:10:25'
p1983
sg13
I0
sg14
F33.74651885032654
sg15
I814
sbsI493
(icore.engine
StatCollection
p1984
(dp1985
g3
I200
sg4
F14.022005081176758
sg5
F16.35088288784027
sg6
I2
sg7
F32.70176577568054
sg8
F16.350986003875732
sg9
S'OK'
p1986
sg11
S'14:10:25'
p1987
sg13
I0
sg14
F32.701972007751465
sg15
I814
sbsI494
(icore.engine
StatCollection
p1988
(dp1989
g3
I200
sg4
F11.852646827697754
sg5
F15.100216507911682
sg6
I2
sg7
F30.200433015823364
sg8
F15.100321412086487
sg9
S'OK'
p1990
sg11
S'14:10:25'
p1991
sg13
I0
sg14
F30.200642824172974
sg15
I814
sbsI495
(icore.engine
StatCollection
p1992
(dp1993
g3
I200
sg4
F12.693760871887207
sg5
F15.689435482025146
sg6
I2
sg7
F31.378870964050293
sg8
F15.689524412155151
sg9
S'OK'
p1994
sg11
S'14:10:25'
p1995
sg13
I0
sg14
F31.379048824310303
sg15
I814
sbsI496
(icore.engine
StatCollection
p1996
(dp1997
g3
I200
sg4
F13.844409227371216
sg5
F15.8430255651474
sg6
I2
sg7
F31.6860511302948
sg8
F15.843088626861572
sg9
S'OK'
p1998
sg11
S'14:10:25'
p1999
sg13
I0
sg14
F31.686177253723145
sg15
I814
sbsI497
(icore.engine
StatCollection
p2000
(dp2001
g3
I200
sg4
F14.800062894821167
sg5
F16.924713492393494
sg6
I2
sg7
F33.84942698478699
sg8
F16.92477595806122
sg9
S'OK'
p2002
sg11
S'14:10:25'
p2003
sg13
I0
sg14
F33.84955191612244
sg15
I814
sbsI498
(icore.engine
StatCollection
p2004
(dp2005
g3
I200
sg4
F13.782123804092407
sg5
F16.071985960006714
sg6
I2
sg7
F32.14397192001343
sg8
F16.072060346603394
sg9
S'OK'
p2006
sg11
S'14:10:25'
p2007
sg13
I0
sg14
F32.14412069320679
sg15
I814
sbsI499
(icore.engine
StatCollection
p2008
(dp2009
g3
I200
sg4
F12.582814931869507
sg5
F15.459343910217285
sg6
I2
sg7
F30.91868782043457
sg8
F15.459418535232544
sg9
S'OK'
p2010
sg11
S'14:10:25'
p2011
sg13
I0
sg14
F30.918837070465088
sg15
I814
sbs.